 ImageMosaic

 Timestamp is 56d1d5d1 (Sat Feb 27 11:58:57 2016)

 Preferred load address is 00400000

 Start         Length     Name                   Class
 0001:00000000 00003a54H .text$di                CODE
 0001:00003a60 0003fbb1H .text$mn                CODE
 0001:00043620 00002ad7H .text$x                 CODE
 0001:00046100 00001256H .text$yd                CODE
 0002:00000000 00000104H .CRT$XCA                DATA
 0002:00000104 00000104H .CRT$XCAA               DATA
 0002:00000208 00000109H .CRT$XCL                DATA
 0002:00000314 000001bcH .CRT$XCU                DATA
 0002:000004d0 00000104H .CRT$XCZ                DATA
 0002:000005d4 00000104H .CRT$XIA                DATA
 0002:000006d8 00000104H .CRT$XIAA               DATA
 0002:000007dc 00000104H .CRT$XIC                DATA
 0002:000008e0 00000104H .CRT$XIY                DATA
 0002:000009e4 00000104H .CRT$XIZ                DATA
 0002:00000af0 00007deeH .rdata                  DATA
 0002:000088e0 00000208H .rdata$debug            DATA
 0002:00008ae8 000007e7H .rdata$r                DATA
 0002:000092d0 000002abH .rdata$sxdata           DATA
 0002:0000957c 00000104H .rtc$IAA                DATA
 0002:00009680 0000012bH .rtc$IMZ                DATA
 0002:000097ac 00000104H .rtc$IZZ                DATA
 0002:000098b0 00000104H .rtc$TAA                DATA
 0002:000099b4 0000012bH .rtc$TMZ                DATA
 0002:00009ae0 00000104H .rtc$TZZ                DATA
 0002:00009be8 00001d14H .xdata$x                DATA
 0002:0000b8fc 00000104H ATL$__a                 DATA
 0002:0000ba00 00000104H ATL$__z                 DATA
 0002:0000bb04 00000000H .edata                  DATA
 0003:00000000 0000014cH .data                   DATA
 0003:0000014c 00000397H .data$r                 DATA
 0003:000004e8 00002f8dH .bss                    DATA
 0004:00000000 00000878H .idata$5                DATA
 0004:00000878 000000c8H .idata$2                DATA
 0004:00000940 00000014H .idata$3                DATA
 0004:00000954 00000878H .idata$4                DATA
 0004:000011cc 00000d45H .idata$6                DATA
 0005:00000000 00000559H .rsrc$01                DATA
 0005:00000560 00007206H .rsrc$02                DATA

  Address         Publics by Value              Rva+Base       Lib:Object

 0000:00000000       ___guard_flags             00000000     <absolute>
 0000:00000000       ___guard_fids_count        00000000     <absolute>
 0000:00000000       __except_list              00000000     <absolute>
 0000:00000000       ___guard_fids_table        00000000     <absolute>
 0000:00000059       ___safe_se_handler_count   00000059     <absolute>
 0000:00009876       __ldused                   00009876     <absolute>
 0000:00009876       __fltused                  00009876     <absolute>
 0000:00000000       ___ImageBase               00400000     <linker-defined>
 0001:00003a60       ?_GetBaseClass@AftRegDlg@@KGPAUCRuntimeClass@@XZ 00404a60 f   AftRegDlg.obj
 0001:00003a80       ?GetThisClass@AftRegDlg@@SGPAUCRuntimeClass@@XZ 00404a80 f   AftRegDlg.obj
 0001:00003a90       ?GetRuntimeClass@AftRegDlg@@UBEPAUCRuntimeClass@@XZ 00404a90 f   AftRegDlg.obj
 0001:00003ab0       ??0AftRegDlg@@QAE@XZ       00404ab0 f   AftRegDlg.obj
 0001:00003b50       ??0AftRegDlg@@QAE@PAVCWnd@@AAVCImage@ATL@@@Z 00404b50 f   AftRegDlg.obj
 0001:00003c30       ??1AftRegDlg@@UAE@XZ       00404c30 f   AftRegDlg.obj
 0001:00003cc0       ?DoDataExchange@AftRegDlg@@MAEXPAVCDataExchange@@@Z 00404cc0 f   AftRegDlg.obj
 0001:00003d10       ?OnInitDialog@AftRegDlg@@MAEHXZ 00404d10 f   AftRegDlg.obj
 0001:00003e80       ?GetThisMessageMap@AftRegDlg@@KGPBUAFX_MSGMAP@@XZ 00404e80 f   AftRegDlg.obj
 0001:00003e90       ?GetMessageMap@AftRegDlg@@MBEPBUAFX_MSGMAP@@XZ 00404e90 f   AftRegDlg.obj
 0001:00003ec0       ?Imagesave@AftRegDlg@@QAEXXZ 00404ec0 f   AftRegDlg.obj
 0001:00004230       ?OnClose@AftRegDlg@@QAEXXZ 00405230 f   AftRegDlg.obj
 0001:00004270       ?PostNcDestroy@AftRegDlg@@UAEXXZ 00405270 f   AftRegDlg.obj
 0001:000042e0       ?Cancel@AftRegDlg@@QAEXXZ  004052e0 f   AftRegDlg.obj
 0001:00004320       ?imageCopy@AftRegDlg@@QAEXAAVCImage@ATL@@0@Z 00405320 f   AftRegDlg.obj
 0001:000044b0       ?OnPaint@AftRegDlg@@IAEXXZ 004054b0 f   AftRegDlg.obj
 0001:00004640       ?CalImageLocation2@AftRegDlg@@QAEXXZ 00405640 f   AftRegDlg.obj
 0001:000049a0       ??$AtlAdd@K@ATL@@YAJPAKKK@Z 004059a0 f i AftRegDlg.obj
 0001:000049e0       ??$AtlAddThrow@K@ATL@@YAKKK@Z 004059e0 f i AftRegDlg.obj
 0001:00004a80       ??$AtlMultiply@I@ATL@@YAJPAIII@Z 00405a80 f i AftRegDlg.obj
 0001:00004af0       ??0?$CAtlSafeAllocBufferManager@VCCRTAllocator@ATL@@@_ATL_SAFE_ALLOCA_IMPL@ATL@@QAE@XZ 00405af0 f i AftRegDlg.obj
 0001:00004b20       ??0?$CHeapPtr@_WVCCRTAllocator@ATL@@@ATL@@QAE@XZ 00405b20 f i AftRegDlg.obj
 0001:00004b50       ??0?$CHeapPtrBase@_WVCCRTAllocator@ATL@@@ATL@@IAE@XZ 00405b50 f i AftRegDlg.obj
 0001:00004b80       ??0?$CTraceCategoryEx@$0CAAA@$0A@@ATL@@QAE@PB_W@Z 00405b80 f i AftRegDlg.obj
 0001:00004bc0       ??0?$CTraceCategoryEx@$0CAAAA@$0A@@ATL@@QAE@PB_W@Z 00405bc0 f i AftRegDlg.obj
 0001:00004c00       ??0?$CW2CWEX@$0IA@@ATL@@QAE@PB_W@Z 00405c00 f i AftRegDlg.obj
 0001:00004c30       ??0Bitmap@Gdiplus@@QAE@HHHHPAE@Z 00405c30 f i AftRegDlg.obj
 0001:00004d50       ??0Bitmap@Gdiplus@@QAE@PAUHBITMAP__@@PAUHPALETTE__@@@Z 00405d50 f i AftRegDlg.obj
 0001:00004e60       ??0CDCCache@CImage@ATL@@QAE@XZ 00405e60 f i AftRegDlg.obj
 0001:00004ec0       ??0CImage@ATL@@QAE@XZ      00405ec0 f i AftRegDlg.obj
 0001:00004fa0       ??0CInitGDIPlus@CImage@ATL@@QAE@XZ 00405fa0 f i AftRegDlg.obj
 0001:00005030       ??0CRect@@QAE@XZ           00406030 f i AftRegDlg.obj
 0001:00005080       ??0CTraceFileAndLineInfo@ATL@@QAE@PBDH@Z 00406080 f i AftRegDlg.obj
 0001:000050c0       ??0GdiplusStartupInput@Gdiplus@@QAE@P6GXW4DebugEventLevel@1@PAD@ZHH@Z 004060c0 f i AftRegDlg.obj
 0001:00005110       ??0Image@Gdiplus@@IAE@PAVGpImage@1@W4Status@1@@Z 00406110 f i AftRegDlg.obj
 0001:00005160       ??0Image@Gdiplus@@IAE@XZ   00406160 f i AftRegDlg.obj
 0001:00005190       ??1?$CAtlSafeAllocBufferManager@VCCRTAllocator@ATL@@@_ATL_SAFE_ALLOCA_IMPL@ATL@@QAE@XZ 00406190 f i AftRegDlg.obj
 0001:00005200       ??1?$CHeapPtr@_WVCCRTAllocator@ATL@@@ATL@@QAE@XZ 00406200 f i AftRegDlg.obj
 0001:00005230       ??1?$CHeapPtrBase@_WVCCRTAllocator@ATL@@@ATL@@QAE@XZ 00406230 f i AftRegDlg.obj
 0001:00005260       ??1?$CW2CWEX@$0IA@@ATL@@QAE@XZ 00406260 f i AftRegDlg.obj
 0001:00005280       ??1Bitmap@Gdiplus@@UAE@XZ  00406280 f i AftRegDlg.obj
 0001:000052b0       ??1CDCCache@CImage@ATL@@QAE@XZ 004062b0 f i AftRegDlg.obj
 0001:00005330       ??1CImage@ATL@@UAE@XZ      00406330 f i AftRegDlg.obj
 0001:00005380       ??1CInitGDIPlus@CImage@ATL@@QAE@XZ 00406380 f i AftRegDlg.obj
 0001:000053d0       ??1Image@Gdiplus@@UAE@XZ   004063d0 f i AftRegDlg.obj
 0001:00005410       ??2GdiplusBase@Gdiplus@@SAPAXI@Z 00406410 f i AftRegDlg.obj
 0001:00005430       ??3GdiplusBase@Gdiplus@@SAXPAX@Z 00406430 f i AftRegDlg.obj
 0001:00005450       ??B?$CHeapPtrBase@_WVCCRTAllocator@ATL@@@ATL@@QBEPA_WXZ 00406450 f i AftRegDlg.obj
 0001:00005470       ??B?$CTraceCategoryEx@$0CAAA@$0A@@ATL@@QAEIXZ 00406470 f i AftRegDlg.obj
 0001:00005490       ??B?$CW2CWEX@$0IA@@ATL@@QBEPB_WXZ 00406490 f i AftRegDlg.obj
 0001:000054b0       ??HATL@@YA?AV?$CStringT@_WV?$StrTraitMFC_DLL@_WV?$ChTraitsCRT@_W@ATL@@@@@0@ABV10@0@Z 004064b0 f i AftRegDlg.obj
 0001:00005660       ??HATL@@YA?AV?$CStringT@_WV?$StrTraitMFC_DLL@_WV?$ChTraitsCRT@_W@ATL@@@@@0@ABV10@PB_W@Z 00406660 f i AftRegDlg.obj
 0001:00005800       ??RCTraceFileAndLineInfo@ATL@@QBAXHIPB_WZZ 00406800 f i AftRegDlg.obj
 0001:00005860       ??_EAftRegDlg@@UAEPAXI@Z   00406860 f i AftRegDlg.obj
 0001:00005860       ??_GAftRegDlg@@UAEPAXI@Z   00406860 f i AftRegDlg.obj
 0001:000058b0       ??_EBitmap@Gdiplus@@UAEPAXI@Z 004068b0 f i AftRegDlg.obj
 0001:000058b0       ??_GBitmap@Gdiplus@@UAEPAXI@Z 004068b0 f i AftRegDlg.obj
 0001:00005900       ??_ECImage@ATL@@UAEPAXI@Z  00406900 f i AftRegDlg.obj
 0001:00005900       ??_GCImage@ATL@@UAEPAXI@Z  00406900 f i AftRegDlg.obj
 0001:00005950       ??_EImage@Gdiplus@@UAEPAXI@Z 00406950 f i AftRegDlg.obj
 0001:00005950       ??_GImage@Gdiplus@@UAEPAXI@Z 00406950 f i AftRegDlg.obj
 0001:000059a0       ??_H@YGXPAXIHP6EPAX0@Z@Z   004069a0 f i AftRegDlg.obj
 0001:000059f0       ?AfxCrtErrorCheck@@YAHH@Z  004069f0 f i AftRegDlg.obj
 0001:00005ad0       ?Allocate@?$CAtlSafeAllocBufferManager@VCCRTAllocator@ATL@@@_ATL_SAFE_ALLOCA_IMPL@ATL@@QAEPAXK@Z 00406ad0 f i AftRegDlg.obj
 0001:00005b50       ?Allocate@?$CHeapPtr@_WVCCRTAllocator@ATL@@@ATL@@QAE_NI@Z 00406b50 f i AftRegDlg.obj
 0001:00005c00       ?Allocate@CCRTAllocator@ATL@@SAPAXI@Z 00406c00 f i AftRegDlg.obj
 0001:00005c30       ?AllocateBytes@?$CHeapPtrBase@_WVCCRTAllocator@ATL@@@ATL@@QAE_NI@Z 00406c30 f i AftRegDlg.obj
 0001:00005cd0       ?AtlThrowImpl@ATL@@YGXJ@Z  00406cd0 f i AftRegDlg.obj
 0001:00005d60       ?Attach@CImage@ATL@@QAEXPAUHBITMAP__@@W4DIBOrientation@12@@Z 00406d60 f i AftRegDlg.obj
 0001:00005e40       ?CImageStaticInitialize@CImage@ATL@@CA_NXZ 00406e40 f i AftRegDlg.obj
 0001:00005e60       ?Clone@Image@Gdiplus@@UAEPAV12@XZ 00406e60 f i AftRegDlg.obj
 0001:00005fa0       ?ComputePitch@CImage@ATL@@CAHHH@Z 00406fa0 f i AftRegDlg.obj
 0001:00005fd0       ?Create@CImage@ATL@@QAEHHHHK@Z 00406fd0 f i AftRegDlg.obj
 0001:00006020       ?CreateEx@CImage@ATL@@QAEHHHHKPBKK@Z 00407020 f i AftRegDlg.obj
 0001:000063f0       ?DecreaseCImageCount@CInitGDIPlus@CImage@ATL@@QAEXXZ 004073f0 f i AftRegDlg.obj
 0001:00006490       ?Destroy@CImage@ATL@@QAEXXZ 00407490 f i AftRegDlg.obj
 0001:00006500       ?Detach@CImage@ATL@@QAEPAUHBITMAP__@@XZ 00407500 f i AftRegDlg.obj
 0001:00006650       ?FindCodecForExtension@CImage@ATL@@CA?AU_GUID@@PB_WPBVImageCodecInfo@Gdiplus@@I@Z 00407650 f i AftRegDlg.obj
 0001:000069e0       ?FindCodecForFileType@CImage@ATL@@CA?AU_GUID@@ABU3@PBVImageCodecInfo@Gdiplus@@I@Z 004079e0 f i AftRegDlg.obj
 0001:00006ab0       ?Free@?$CHeapPtrBase@_WVCCRTAllocator@ATL@@@ATL@@QAEXXZ 00407ab0 f i AftRegDlg.obj
 0001:00006af0       ?Free@CCRTAllocator@ATL@@SAXPAX@Z 00407af0 f i AftRegDlg.obj
 0001:00006b20       ?GetBPP@CImage@ATL@@QBEHXZ 00407b20 f i AftRegDlg.obj
 0001:00006ba0       ?GetBits@CImage@ATL@@QAEPAXXZ 00407ba0 f i AftRegDlg.obj
 0001:00006c70       ?GetCDCCacheInstance@CImage@ATL@@CAPAVCDCCache@12@XZ 00407c70 f i AftRegDlg.obj
 0001:00006cd0       ?GetCategoryName@CTrace@ATL@@CAPA_WI@Z 00407cd0 f i AftRegDlg.obj
 0001:00006d40       ?GetColorTable@CImage@ATL@@QBEXIIPAUtagRGBQUAD@@@Z 00407d40 f i AftRegDlg.obj
 0001:00006e90       ?GetDC@CDCCache@CImage@ATL@@QAEPAUHDC__@@XZ 00407e90 f i AftRegDlg.obj
 0001:00006f30       ?GetDC@CImage@ATL@@QBEPAUHDC__@@XZ 00407f30 f i AftRegDlg.obj
 0001:00007010       ?GetData@CAtlSafeAllocBufferNode@?$CAtlSafeAllocBufferManager@VCCRTAllocator@ATL@@@_ATL_SAFE_ALLOCA_IMPL@ATL@@QAEPAXXZ 00408010 f i AftRegDlg.obj
 0001:00007030       ?GetHeight@CImage@ATL@@QBEHXZ 00408030 f i AftRegDlg.obj
 0001:000070b0       ?GetImageEncoders@Gdiplus@@YA?AW4Status@1@IIPAVImageCodecInfo@1@@Z 004080b0 f i AftRegDlg.obj
 0001:000070e0       ?GetImageEncodersSize@Gdiplus@@YA?AW4Status@1@PAI0@Z 004080e0 f i AftRegDlg.obj
 0001:00007100       ?GetInitGDIPlusInstance@CImage@ATL@@CAPAVCInitGDIPlus@12@XZ 00408100 f i AftRegDlg.obj
 0001:00007160       ?GetPitch@CImage@ATL@@QBEHXZ 00408160 f i AftRegDlg.obj
 0001:00007230       ?GetWidth@CImage@ATL@@QBEHXZ 00408230 f i AftRegDlg.obj
 0001:000072b0       ?Height@CRect@@QBEHXZ      004082b0 f i AftRegDlg.obj
 0001:000072e0       ?IncreaseCImageCount@CInitGDIPlus@CImage@ATL@@QAEXXZ 004082e0 f i AftRegDlg.obj
 0001:00007350       ?Init@CInitGDIPlus@CImage@ATL@@QAE_NXZ 00408350 f i AftRegDlg.obj
 0001:00007470       ?InitGDIPlus@CImage@ATL@@CA_NXZ 00408470 f i AftRegDlg.obj
 0001:000074b0       ?InterlockedExchangePointer@@YGPAXPAPAXPAX@Z 004084b0 f i AftRegDlg.obj
 0001:000074d0       ?IsDIBSection@CImage@ATL@@QBE_NXZ 004084d0 f i AftRegDlg.obj
 0001:000074f0       ?IsIndexed@CImage@ATL@@QBE_NXZ 004084f0 f i AftRegDlg.obj
 0001:000075e0       ?IsNull@CImage@ATL@@QBE_NXZ 004085e0 f i AftRegDlg.obj
 0001:00007630       ?RegisterCategory@CTrace@ATL@@SAXPB_WI@Z 00408630 f i AftRegDlg.obj
 0001:00007700       ?ReleaseDC@CDCCache@CImage@ATL@@QAEXPAUHDC__@@@Z 00408700 f i AftRegDlg.obj
 0001:000077b0       ?ReleaseDC@CImage@ATL@@QBEXXZ 004087b0 f i AftRegDlg.obj
 0001:000078f0       ?ReleaseGDIPlus@CInitGDIPlus@CImage@ATL@@QAEXXZ 004088f0 f i AftRegDlg.obj
 0001:00007970       ?Save@CImage@ATL@@QBEJPB_WABU_GUID@@@Z 00408970 f i AftRegDlg.obj
 0001:00007f50       ?Save@Image@Gdiplus@@QAE?AW4Status@2@PB_WPBU_GUID@@PBVEncoderParameters@2@@Z 00408f50 f i AftRegDlg.obj
 0001:00007fa0       ?SetColorTable@CImage@ATL@@QAEXIIPBUtagRGBQUAD@@@Z 00408fa0 f i AftRegDlg.obj
 0001:000080f0       ?SetNativeImage@Image@Gdiplus@@IAEXPAVGpImage@2@@Z 004090f0 f i AftRegDlg.obj
 0001:00008120       ?SetStatus@Image@Gdiplus@@IBE?AW4Status@2@W432@@Z 00409120 f i AftRegDlg.obj
 0001:00008160       ?StretchBlt@CImage@ATL@@QBEHPAUHDC__@@HHHHHHHHK@Z 00409160 f i AftRegDlg.obj
 0001:000082d0       ?StretchBlt@CImage@ATL@@QBEHPAUHDC__@@HHHHK@Z 004092d0 f i AftRegDlg.obj
 0001:00008340       ?T2CW_EX@@YAPB_WPB_WI@Z    00409340 f i AftRegDlg.obj
 0001:00008350       ?TraceV@CTrace@ATL@@CAXPBDHIIPB_W@Z 00409350 f i AftRegDlg.obj
 0001:000086d0       ?TraceV@CTrace@ATL@@SAXPBDHIIPB_WPAD@Z 004096d0 f i AftRegDlg.obj
 0001:000088a0       ?UpdateBitmapInfo@CImage@ATL@@AAEXW4DIBOrientation@12@@Z 004098a0 f i AftRegDlg.obj
 0001:00008ad0       ?Width@CRect@@QBEHXZ       00409ad0 f i AftRegDlg.obj
 0001:00008b00       ?_AtlGetConversionACP@ATL@@YGIXZ 00409b00 f i AftRegDlg.obj
 0001:00008b10       ?_AtlInitializeCriticalSectionEx@ATL@@YAHPAU_RTL_CRITICAL_SECTION@@KK@Z 00409b10 f i AftRegDlg.obj
 0001:00008b50       ?_AtlVerifyStackAvailable@_ATL_SAFE_ALLOCA_IMPL@ATL@@YA_NK@Z 00409b50 f i AftRegDlg.obj
 0001:00008d80       ?abs@@YAJJ@Z               00409d80 f i AftRegDlg.obj
 0001:00008da0       ?memcpy_s@Checked@ATL@@YAXPAXIPBXI@Z 00409da0 f i AftRegDlg.obj
 0001:00008df0       _==                        00409df0 f i AftRegDlg.obj
 0001:00008e40       _HRESULT_FROM_WIN32        00409e40 f i AftRegDlg.obj
 0001:00008e90       _IsEqualGUID               00409e90 f i AftRegDlg.obj
 0001:00008ef0       ??0CDWT@@QAE@XZ            00409ef0 f   DWT.obj
 0001:00008f20       ??1CDWT@@UAE@XZ            00409f20 f   DWT.obj
 0001:00008f40       ?WvltTransTwice@CDWT@@QAEXAAVCImage@ATL@@AAPAM@Z 00409f40 f   DWT.obj
 0001:00009500       ?DWT_TwoLayers@CDWT@@QAEXAAPAPAF00HHHHHM@Z 0040a500 f   DWT.obj
 0001:000095b0       ?WvltTransOnce@CDWT@@QAEXAAVCImage@ATL@@AAPAM@Z 0040a5b0 f   DWT.obj
 0001:00009b50       ?DWT_Once@CDWT@@QAEXAAPAPAF00HHHHHM@Z 0040ab50 f   DWT.obj
 0001:0000aa60       ??_GCDWT@@UAEPAXI@Z        0040ba60 f i DWT.obj
 0001:0000aa60       ??_ECDWT@@UAEPAXI@Z        0040ba60 f i DWT.obj
 0001:0000aae0       ??0CHarrisCorners@@QAE@XZ  0040bae0 f   HarrisCorners.obj
 0001:0000ab00       ??1CHarrisCorners@@QAE@XZ  0040bb00 f   HarrisCorners.obj
 0001:0000ab20       ?cornersDetecting@CHarrisCorners@@QAEXAAPAM0FFFFAAPA_N1@Z 0040bb20 f   HarrisCorners.obj
 0001:0000ad00       ?harrisCornerDetecting@CHarrisCorners@@QAEXFFAAPAMAAPA_N1@Z 0040bd00 f   HarrisCorners.obj
 0001:0000c480       ?harrisCornerDetecting@CHarrisCorners@@QAEXFFAAPAMAAPA_N1FFFF@Z 0040d480 f   HarrisCorners.obj
 0001:0000dca0       ?cornersMatching@CHarrisCorners@@QAE_NAAPAM0AAPA_N1@Z 0040eca0 f   HarrisCorners.obj
 0001:0000e440       ?cornersMatching@CHarrisCorners@@QAE_NAAPAM0AAPA_N1FFFF_N22@Z 0040f440 f   HarrisCorners.obj
 0001:0000fc40       ?coarseMatching@CHarrisCorners@@QAEXAAPAM0FFFFAAPA_N1M@Z 00410c40 f   HarrisCorners.obj
 0001:00011270       ?coarseMatching@CHarrisCorners@@QAEXAAPAM0FFFFAAPA_N1AAPAU_PAIR2@@HMHH@Z 00412270 f   HarrisCorners.obj
 0001:00012570       ?ransacMatching@CHarrisCorners@@QAE_NAAPAU_TEMP@@HAAHFFFF@Z 00413570 f   HarrisCorners.obj
 0001:00013f60       ?ransacMatching@CHarrisCorners@@QAE_NAAPAU_TEMP@@HHPAU_PAIR2@@HAAV?$list@U_PAIR2@@V?$allocator@U_PAIR2@@@std@@@std@@FFFF@Z 00414f60 f   HarrisCorners.obj
 0001:00015b00       ?judgeFourPoints@CHarrisCorners@@QAE_NPAU_PAIR2@@FFFFF@Z 00416b00 f   HarrisCorners.obj
 0001:00017210       ?getProjectionPara@CHarrisCorners@@QAEXPAU_PAIR2@@PAM_N@Z 00418210 f   HarrisCorners.obj
 0001:00017da0       ?calMatProduct@CHarrisCorners@@QAEXPAM00FFF@Z 00418da0 f   HarrisCorners.obj
 0001:00017ec0       ?calInvMatrix@CHarrisCorners@@QAEHPAMF@Z 00418ec0 f   HarrisCorners.obj
 0001:000185d0       ?L_MOptimize@CHarrisCorners@@QAEXPAU_PAIR2@@H_N@Z 004195d0 f   HarrisCorners.obj
 0001:0001dbb0       ?imageFusion@CHarrisCorners@@QAEXAAVCImage@ATL@@00@Z 0041ebb0 f   HarrisCorners.obj
 0001:00021740       ?getAftProDim@CHarrisCorners@@QAEXPAF00000FFFF@Z 00422740 f   HarrisCorners.obj
 0001:00021d70       ?mbys@@YAMAAPAMHHHHPAMHH@Z 00422d70 f   HarrisCorners.obj
 0001:00021e80       ?mbys@@YAMPAMHH0HH@Z       00422e80 f   HarrisCorners.obj
 0001:00021f30       ?prescreening@@YAXFFAAPAMAAPA_N@Z 00422f30 f   HarrisCorners.obj
 0001:00022220       ?corresX@@YAMQAE0F@Z       00423220 f   HarrisCorners.obj
 0001:00022450       ?Corres@@YAMAAPAM0FFFFFF@Z 00423450 f   HarrisCorners.obj
 0001:00022b10       ?GetM@@YAXAAPAMFFFQAE@Z    00423b10 f   HarrisCorners.obj
 0001:00022ea0       ?max3v@@YAMMMM@Z           00423ea0 f   HarrisCorners.obj
 0001:00022ef0       ?min3v@@YAMMMM@Z           00423ef0 f   HarrisCorners.obj
 0001:00022f40       ?RGBtoYUV@@YAXMMMAAM00@Z   00423f40 f   HarrisCorners.obj
 0001:00023350       ?YUVtoRGB@@YAXMMMAAM00@Z   00424350 f   HarrisCorners.obj
 0001:000237b0       ?Trans@@YAXAAMM@Z          004247b0 f   HarrisCorners.obj
 0001:000238a0       ?GetS@@YAXPAMMM@Z          004248a0 f   HarrisCorners.obj
 0001:00029fd0       ??$_Allocate@U?$_List_node@U_CORNER@@PAX@std@@@std@@YAPAU?$_List_node@U_CORNER@@PAX@0@IPAU10@@Z 0042afd0 f i HarrisCorners.obj
 0001:0002a050       ??$_Allocate@U?$_List_node@U_DOT@@PAX@std@@@std@@YAPAU?$_List_node@U_DOT@@PAX@0@IPAU10@@Z 0042b050 f i HarrisCorners.obj
 0001:0002a0d0       ??$_Allocate@U?$_List_node@U_PAIR2@@PAX@std@@@std@@YAPAU?$_List_node@U_PAIR2@@PAX@0@IPAU10@@Z 0042b0d0 f i HarrisCorners.obj
 0001:0002a150       ??$_Allocate@U?$_List_node@U_PAIR@@PAX@std@@@std@@YAPAU?$_List_node@U_PAIR@@PAX@0@IPAU10@@Z 0042b150 f i HarrisCorners.obj
 0001:0002a1d0       ??$_Allocate@U_Container_proxy@std@@@std@@YAPAU_Container_proxy@0@IPAU10@@Z 0042b1d0 f i HarrisCorners.obj
 0001:0002a250       ??$_Buynode@ABU_CORNER@@@?$_List_buy@U_CORNER@@V?$allocator@U_CORNER@@@std@@@std@@QAEPAU?$_List_node@U_CORNER@@PAX@1@PAU21@0ABU_CORNER@@@Z 0042b250 f i HarrisCorners.obj
 0001:0002a3a0       ??$_Buynode@ABU_DOT@@@?$_List_buy@U_DOT@@V?$allocator@U_DOT@@@std@@@std@@QAEPAU?$_List_node@U_DOT@@PAX@1@PAU21@0ABU_DOT@@@Z 0042b3a0 f i HarrisCorners.obj
 0001:0002a4f0       ??$_Buynode@ABU_PAIR2@@@?$_List_buy@U_PAIR2@@V?$allocator@U_PAIR2@@@std@@@std@@QAEPAU?$_List_node@U_PAIR2@@PAX@1@PAU21@0ABU_PAIR2@@@Z 0042b4f0 f i HarrisCorners.obj
 0001:0002a640       ??$_Buynode@ABU_PAIR@@@?$_List_buy@U_PAIR@@V?$allocator@U_PAIR@@@std@@@std@@QAEPAU?$_List_node@U_PAIR@@PAX@1@PAU21@0ABU_PAIR@@@Z 0042b640 f i HarrisCorners.obj
 0001:0002a790       ??$_Insert@ABU_CORNER@@@?$list@U_CORNER@@V?$allocator@U_CORNER@@@std@@@std@@QAEXV?$_List_unchecked_const_iterator@V?$_List_val@U?$_List_simple_types@U_CORNER@@@std@@@std@@U_Iterator_base0@2@@1@ABU_CORNER@@@Z 0042b790 f i HarrisCorners.obj
 0001:0002a860       ??$_Insert@ABU_DOT@@@?$list@U_DOT@@V?$allocator@U_DOT@@@std@@@std@@QAEXV?$_List_unchecked_const_iterator@V?$_List_val@U?$_List_simple_types@U_DOT@@@std@@@std@@U_Iterator_base0@2@@1@ABU_DOT@@@Z 0042b860 f i HarrisCorners.obj
 0001:0002a930       ??$_Insert@ABU_PAIR2@@@?$list@U_PAIR2@@V?$allocator@U_PAIR2@@@std@@@std@@QAEXV?$_List_unchecked_const_iterator@V?$_List_val@U?$_List_simple_types@U_PAIR2@@@std@@@std@@U_Iterator_base0@2@@1@ABU_PAIR2@@@Z 0042b930 f i HarrisCorners.obj
 0001:0002aa00       ??$_Insert@ABU_PAIR@@@?$list@U_PAIR@@V?$allocator@U_PAIR@@@std@@@std@@QAEXV?$_List_unchecked_const_iterator@V?$_List_val@U?$_List_simple_types@U_PAIR@@@std@@@std@@U_Iterator_base0@2@@1@ABU_PAIR@@@Z 0042ba00 f i HarrisCorners.obj
 0001:0002aad0       ??$addressof@PAU?$_List_node@U_CORNER@@PAX@std@@@std@@YAPAPAU?$_List_node@U_CORNER@@PAX@0@AAPAU10@@Z 0042bad0 f i HarrisCorners.obj
 0001:0002aae0       ??$addressof@PAU?$_List_node@U_DOT@@PAX@std@@@std@@YAPAPAU?$_List_node@U_DOT@@PAX@0@AAPAU10@@Z 0042bae0 f i HarrisCorners.obj
 0001:0002aaf0       ??$addressof@PAU?$_List_node@U_PAIR2@@PAX@std@@@std@@YAPAPAU?$_List_node@U_PAIR2@@PAX@0@AAPAU10@@Z 0042baf0 f i HarrisCorners.obj
 0001:0002ab00       ??$addressof@PAU?$_List_node@U_PAIR@@PAX@std@@@std@@YAPAPAU?$_List_node@U_PAIR@@PAX@0@AAPAU10@@Z 0042bb00 f i HarrisCorners.obj
 0001:0002ab10       ??$addressof@U_CORNER@@@std@@YAPAU_CORNER@@AAU1@@Z 0042bb10 f i HarrisCorners.obj
 0001:0002ab20       ??$addressof@U_DOT@@@std@@YAPAU_DOT@@AAU1@@Z 0042bb20 f i HarrisCorners.obj
 0001:0002ab30       ??$addressof@U_PAIR2@@@std@@YAPAU_PAIR2@@AAU1@@Z 0042bb30 f i HarrisCorners.obj
 0001:0002ab40       ??$addressof@U_PAIR@@@std@@YAPAU_PAIR@@AAU1@@Z 0042bb40 f i HarrisCorners.obj
 0001:0002ab50       ??$construct@PAU?$_List_node@U_CORNER@@PAX@std@@AAPAU12@@?$_Wrap_alloc@V?$allocator@U?$_List_node@U_CORNER@@PAX@std@@@std@@@std@@QAEXPAPAU?$_List_node@U_CORNER@@PAX@1@AAPAU21@@Z 0042bb50 f i HarrisCorners.obj
 0001:0002aba0       ??$construct@PAU?$_List_node@U_CORNER@@PAX@std@@AAPAU12@@?$allocator@U?$_List_node@U_CORNER@@PAX@std@@@std@@QAEXPAPAU?$_List_node@U_CORNER@@PAX@1@AAPAU21@@Z 0042bba0 f i HarrisCorners.obj
 0001:0002ac70       ??$construct@PAU?$_List_node@U_CORNER@@PAX@std@@AAPAU12@@?$allocator_traits@V?$allocator@U?$_List_node@U_CORNER@@PAX@std@@@std@@@std@@SAXAAV?$allocator@U?$_List_node@U_CORNER@@PAX@std@@@1@PAPAU?$_List_node@U_CORNER@@PAX@1@AAPAU31@@Z 0042bc70 f i HarrisCorners.obj
 0001:0002aca0       ??$construct@PAU?$_List_node@U_DOT@@PAX@std@@AAPAU12@@?$_Wrap_alloc@V?$allocator@U?$_List_node@U_DOT@@PAX@std@@@std@@@std@@QAEXPAPAU?$_List_node@U_DOT@@PAX@1@AAPAU21@@Z 0042bca0 f i HarrisCorners.obj
 0001:0002acf0       ??$construct@PAU?$_List_node@U_DOT@@PAX@std@@AAPAU12@@?$allocator@U?$_List_node@U_DOT@@PAX@std@@@std@@QAEXPAPAU?$_List_node@U_DOT@@PAX@1@AAPAU21@@Z 0042bcf0 f i HarrisCorners.obj
 0001:0002adc0       ??$construct@PAU?$_List_node@U_DOT@@PAX@std@@AAPAU12@@?$allocator_traits@V?$allocator@U?$_List_node@U_DOT@@PAX@std@@@std@@@std@@SAXAAV?$allocator@U?$_List_node@U_DOT@@PAX@std@@@1@PAPAU?$_List_node@U_DOT@@PAX@1@AAPAU31@@Z 0042bdc0 f i HarrisCorners.obj
 0001:0002adf0       ??$construct@PAU?$_List_node@U_PAIR2@@PAX@std@@AAPAU12@@?$_Wrap_alloc@V?$allocator@U?$_List_node@U_PAIR2@@PAX@std@@@std@@@std@@QAEXPAPAU?$_List_node@U_PAIR2@@PAX@1@AAPAU21@@Z 0042bdf0 f i HarrisCorners.obj
 0001:0002ae40       ??$construct@PAU?$_List_node@U_PAIR2@@PAX@std@@AAPAU12@@?$allocator@U?$_List_node@U_PAIR2@@PAX@std@@@std@@QAEXPAPAU?$_List_node@U_PAIR2@@PAX@1@AAPAU21@@Z 0042be40 f i HarrisCorners.obj
 0001:0002af10       ??$construct@PAU?$_List_node@U_PAIR2@@PAX@std@@AAPAU12@@?$allocator_traits@V?$allocator@U?$_List_node@U_PAIR2@@PAX@std@@@std@@@std@@SAXAAV?$allocator@U?$_List_node@U_PAIR2@@PAX@std@@@1@PAPAU?$_List_node@U_PAIR2@@PAX@1@AAPAU31@@Z 0042bf10 f i HarrisCorners.obj
 0001:0002af40       ??$construct@PAU?$_List_node@U_PAIR@@PAX@std@@AAPAU12@@?$_Wrap_alloc@V?$allocator@U?$_List_node@U_PAIR@@PAX@std@@@std@@@std@@QAEXPAPAU?$_List_node@U_PAIR@@PAX@1@AAPAU21@@Z 0042bf40 f i HarrisCorners.obj
 0001:0002af90       ??$construct@PAU?$_List_node@U_PAIR@@PAX@std@@AAPAU12@@?$allocator@U?$_List_node@U_PAIR@@PAX@std@@@std@@QAEXPAPAU?$_List_node@U_PAIR@@PAX@1@AAPAU21@@Z 0042bf90 f i HarrisCorners.obj
 0001:0002b060       ??$construct@PAU?$_List_node@U_PAIR@@PAX@std@@AAPAU12@@?$allocator_traits@V?$allocator@U?$_List_node@U_PAIR@@PAX@std@@@std@@@std@@SAXAAV?$allocator@U?$_List_node@U_PAIR@@PAX@std@@@1@PAPAU?$_List_node@U_PAIR@@PAX@1@AAPAU31@@Z 0042c060 f i HarrisCorners.obj
 0001:0002b090       ??$construct@U_CORNER@@ABU1@@?$_Wrap_alloc@V?$allocator@U?$_List_node@U_CORNER@@PAX@std@@@std@@@std@@QAEXPAU_CORNER@@ABU2@@Z 0042c090 f i HarrisCorners.obj
 0001:0002b0e0       ??$construct@U_CORNER@@ABU1@@?$allocator@U?$_List_node@U_CORNER@@PAX@std@@@std@@QAEXPAU_CORNER@@ABU2@@Z 0042c0e0 f i HarrisCorners.obj
 0001:0002b1c0       ??$construct@U_CORNER@@ABU1@@?$allocator_traits@V?$allocator@U?$_List_node@U_CORNER@@PAX@std@@@std@@@std@@SAXAAV?$allocator@U?$_List_node@U_CORNER@@PAX@std@@@1@PAU_CORNER@@ABU3@@Z 0042c1c0 f i HarrisCorners.obj
 0001:0002b1f0       ??$construct@U_Container_proxy@std@@U12@@?$_Wrap_alloc@V?$allocator@U_Container_proxy@std@@@std@@@std@@QAEXPAU_Container_proxy@1@$$QAU21@@Z 0042c1f0 f i HarrisCorners.obj
 0001:0002b240       ??$construct@U_Container_proxy@std@@U12@@?$allocator@U_Container_proxy@std@@@std@@QAEXPAU_Container_proxy@1@$$QAU21@@Z 0042c240 f i HarrisCorners.obj
 0001:0002b310       ??$construct@U_Container_proxy@std@@U12@@?$allocator_traits@V?$allocator@U_Container_proxy@std@@@std@@@std@@SAXAAV?$allocator@U_Container_proxy@std@@@1@PAU_Container_proxy@1@$$QAU31@@Z 0042c310 f i HarrisCorners.obj
 0001:0002b340       ??$construct@U_DOT@@ABU1@@?$_Wrap_alloc@V?$allocator@U?$_List_node@U_DOT@@PAX@std@@@std@@@std@@QAEXPAU_DOT@@ABU2@@Z 0042c340 f i HarrisCorners.obj
 0001:0002b390       ??$construct@U_DOT@@ABU1@@?$allocator@U?$_List_node@U_DOT@@PAX@std@@@std@@QAEXPAU_DOT@@ABU2@@Z 0042c390 f i HarrisCorners.obj
 0001:0002b470       ??$construct@U_DOT@@ABU1@@?$allocator_traits@V?$allocator@U?$_List_node@U_DOT@@PAX@std@@@std@@@std@@SAXAAV?$allocator@U?$_List_node@U_DOT@@PAX@std@@@1@PAU_DOT@@ABU3@@Z 0042c470 f i HarrisCorners.obj
 0001:0002b4a0       ??$construct@U_PAIR2@@ABU1@@?$_Wrap_alloc@V?$allocator@U?$_List_node@U_PAIR2@@PAX@std@@@std@@@std@@QAEXPAU_PAIR2@@ABU2@@Z 0042c4a0 f i HarrisCorners.obj
 0001:0002b4f0       ??$construct@U_PAIR2@@ABU1@@?$allocator@U?$_List_node@U_PAIR2@@PAX@std@@@std@@QAEXPAU_PAIR2@@ABU2@@Z 0042c4f0 f i HarrisCorners.obj
 0001:0002b5d0       ??$construct@U_PAIR2@@ABU1@@?$allocator_traits@V?$allocator@U?$_List_node@U_PAIR2@@PAX@std@@@std@@@std@@SAXAAV?$allocator@U?$_List_node@U_PAIR2@@PAX@std@@@1@PAU_PAIR2@@ABU3@@Z 0042c5d0 f i HarrisCorners.obj
 0001:0002b600       ??$construct@U_PAIR@@ABU1@@?$_Wrap_alloc@V?$allocator@U?$_List_node@U_PAIR@@PAX@std@@@std@@@std@@QAEXPAU_PAIR@@ABU2@@Z 0042c600 f i HarrisCorners.obj
 0001:0002b650       ??$construct@U_PAIR@@ABU1@@?$allocator@U?$_List_node@U_PAIR@@PAX@std@@@std@@QAEXPAU_PAIR@@ABU2@@Z 0042c650 f i HarrisCorners.obj
 0001:0002b730       ??$construct@U_PAIR@@ABU1@@?$allocator_traits@V?$allocator@U?$_List_node@U_PAIR@@PAX@std@@@std@@@std@@SAXAAV?$allocator@U?$_List_node@U_PAIR@@PAX@std@@@1@PAU_PAIR@@ABU3@@Z 0042c730 f i HarrisCorners.obj
 0001:0002b760       ??$destroy@PAU?$_List_node@U_CORNER@@PAX@std@@@?$_Wrap_alloc@V?$allocator@U?$_List_node@U_CORNER@@PAX@std@@@std@@@std@@QAEXPAPAU?$_List_node@U_CORNER@@PAX@1@@Z 0042c760 f i HarrisCorners.obj
 0001:0002b7a0       ??$destroy@PAU?$_List_node@U_CORNER@@PAX@std@@@?$allocator@U?$_List_node@U_CORNER@@PAX@std@@@std@@QAEXPAPAU?$_List_node@U_CORNER@@PAX@1@@Z 0042c7a0 f i HarrisCorners.obj
 0001:0002b7c0       ??$destroy@PAU?$_List_node@U_CORNER@@PAX@std@@@?$allocator_traits@V?$allocator@U?$_List_node@U_CORNER@@PAX@std@@@std@@@std@@SAXAAV?$allocator@U?$_List_node@U_CORNER@@PAX@std@@@1@PAPAU?$_List_node@U_CORNER@@PAX@1@@Z 0042c7c0 f i HarrisCorners.obj
 0001:0002b7e0       ??$destroy@PAU?$_List_node@U_DOT@@PAX@std@@@?$_Wrap_alloc@V?$allocator@U?$_List_node@U_DOT@@PAX@std@@@std@@@std@@QAEXPAPAU?$_List_node@U_DOT@@PAX@1@@Z 0042c7e0 f i HarrisCorners.obj
 0001:0002b820       ??$destroy@PAU?$_List_node@U_DOT@@PAX@std@@@?$allocator@U?$_List_node@U_DOT@@PAX@std@@@std@@QAEXPAPAU?$_List_node@U_DOT@@PAX@1@@Z 0042c820 f i HarrisCorners.obj
 0001:0002b840       ??$destroy@PAU?$_List_node@U_DOT@@PAX@std@@@?$allocator_traits@V?$allocator@U?$_List_node@U_DOT@@PAX@std@@@std@@@std@@SAXAAV?$allocator@U?$_List_node@U_DOT@@PAX@std@@@1@PAPAU?$_List_node@U_DOT@@PAX@1@@Z 0042c840 f i HarrisCorners.obj
 0001:0002b860       ??$destroy@PAU?$_List_node@U_PAIR2@@PAX@std@@@?$_Wrap_alloc@V?$allocator@U?$_List_node@U_PAIR2@@PAX@std@@@std@@@std@@QAEXPAPAU?$_List_node@U_PAIR2@@PAX@1@@Z 0042c860 f i HarrisCorners.obj
 0001:0002b8a0       ??$destroy@PAU?$_List_node@U_PAIR2@@PAX@std@@@?$allocator@U?$_List_node@U_PAIR2@@PAX@std@@@std@@QAEXPAPAU?$_List_node@U_PAIR2@@PAX@1@@Z 0042c8a0 f i HarrisCorners.obj
 0001:0002b8c0       ??$destroy@PAU?$_List_node@U_PAIR2@@PAX@std@@@?$allocator_traits@V?$allocator@U?$_List_node@U_PAIR2@@PAX@std@@@std@@@std@@SAXAAV?$allocator@U?$_List_node@U_PAIR2@@PAX@std@@@1@PAPAU?$_List_node@U_PAIR2@@PAX@1@@Z 0042c8c0 f i HarrisCorners.obj
 0001:0002b8e0       ??$destroy@PAU?$_List_node@U_PAIR@@PAX@std@@@?$_Wrap_alloc@V?$allocator@U?$_List_node@U_PAIR@@PAX@std@@@std@@@std@@QAEXPAPAU?$_List_node@U_PAIR@@PAX@1@@Z 0042c8e0 f i HarrisCorners.obj
 0001:0002b920       ??$destroy@PAU?$_List_node@U_PAIR@@PAX@std@@@?$allocator@U?$_List_node@U_PAIR@@PAX@std@@@std@@QAEXPAPAU?$_List_node@U_PAIR@@PAX@1@@Z 0042c920 f i HarrisCorners.obj
 0001:0002b940       ??$destroy@PAU?$_List_node@U_PAIR@@PAX@std@@@?$allocator_traits@V?$allocator@U?$_List_node@U_PAIR@@PAX@std@@@std@@@std@@SAXAAV?$allocator@U?$_List_node@U_PAIR@@PAX@std@@@1@PAPAU?$_List_node@U_PAIR@@PAX@1@@Z 0042c940 f i HarrisCorners.obj
 0001:0002b960       ??$destroy@U_CORNER@@@?$_Wrap_alloc@V?$allocator@U?$_List_node@U_CORNER@@PAX@std@@@std@@@std@@QAEXPAU_CORNER@@@Z 0042c960 f i HarrisCorners.obj
 0001:0002b9a0       ??$destroy@U_CORNER@@@?$allocator@U?$_List_node@U_CORNER@@PAX@std@@@std@@QAEXPAU_CORNER@@@Z 0042c9a0 f i HarrisCorners.obj
 0001:0002b9c0       ??$destroy@U_CORNER@@@?$allocator_traits@V?$allocator@U?$_List_node@U_CORNER@@PAX@std@@@std@@@std@@SAXAAV?$allocator@U?$_List_node@U_CORNER@@PAX@std@@@1@PAU_CORNER@@@Z 0042c9c0 f i HarrisCorners.obj
 0001:0002b9e0       ??$destroy@U_Container_proxy@std@@@?$_Wrap_alloc@V?$allocator@U_Container_proxy@std@@@std@@@std@@QAEXPAU_Container_proxy@1@@Z 0042c9e0 f i HarrisCorners.obj
 0001:0002ba20       ??$destroy@U_Container_proxy@std@@@?$allocator@U_Container_proxy@std@@@std@@QAEXPAU_Container_proxy@1@@Z 0042ca20 f i HarrisCorners.obj
 0001:0002ba40       ??$destroy@U_Container_proxy@std@@@?$allocator_traits@V?$allocator@U_Container_proxy@std@@@std@@@std@@SAXAAV?$allocator@U_Container_proxy@std@@@1@PAU_Container_proxy@1@@Z 0042ca40 f i HarrisCorners.obj
 0001:0002ba60       ??$destroy@U_DOT@@@?$_Wrap_alloc@V?$allocator@U?$_List_node@U_DOT@@PAX@std@@@std@@@std@@QAEXPAU_DOT@@@Z 0042ca60 f i HarrisCorners.obj
 0001:0002baa0       ??$destroy@U_DOT@@@?$allocator@U?$_List_node@U_DOT@@PAX@std@@@std@@QAEXPAU_DOT@@@Z 0042caa0 f i HarrisCorners.obj
 0001:0002bac0       ??$destroy@U_DOT@@@?$allocator_traits@V?$allocator@U?$_List_node@U_DOT@@PAX@std@@@std@@@std@@SAXAAV?$allocator@U?$_List_node@U_DOT@@PAX@std@@@1@PAU_DOT@@@Z 0042cac0 f i HarrisCorners.obj
 0001:0002bae0       ??$destroy@U_PAIR2@@@?$_Wrap_alloc@V?$allocator@U?$_List_node@U_PAIR2@@PAX@std@@@std@@@std@@QAEXPAU_PAIR2@@@Z 0042cae0 f i HarrisCorners.obj
 0001:0002bb20       ??$destroy@U_PAIR2@@@?$allocator@U?$_List_node@U_PAIR2@@PAX@std@@@std@@QAEXPAU_PAIR2@@@Z 0042cb20 f i HarrisCorners.obj
 0001:0002bb40       ??$destroy@U_PAIR2@@@?$allocator_traits@V?$allocator@U?$_List_node@U_PAIR2@@PAX@std@@@std@@@std@@SAXAAV?$allocator@U?$_List_node@U_PAIR2@@PAX@std@@@1@PAU_PAIR2@@@Z 0042cb40 f i HarrisCorners.obj
 0001:0002bb60       ??$destroy@U_PAIR@@@?$_Wrap_alloc@V?$allocator@U?$_List_node@U_PAIR@@PAX@std@@@std@@@std@@QAEXPAU_PAIR@@@Z 0042cb60 f i HarrisCorners.obj
 0001:0002bba0       ??$destroy@U_PAIR@@@?$allocator@U?$_List_node@U_PAIR@@PAX@std@@@std@@QAEXPAU_PAIR@@@Z 0042cba0 f i HarrisCorners.obj
 0001:0002bbc0       ??$destroy@U_PAIR@@@?$allocator_traits@V?$allocator@U?$_List_node@U_PAIR@@PAX@std@@@std@@@std@@SAXAAV?$allocator@U?$_List_node@U_PAIR@@PAX@std@@@1@PAU_PAIR@@@Z 0042cbc0 f i HarrisCorners.obj
 0001:0002bbe0       ??$forward@AAPAU?$_List_node@U_CORNER@@PAX@std@@@std@@YAAAPAU?$_List_node@U_CORNER@@PAX@0@AAPAU10@@Z 0042cbe0 f i HarrisCorners.obj
 0001:0002bbf0       ??$forward@AAPAU?$_List_node@U_DOT@@PAX@std@@@std@@YAAAPAU?$_List_node@U_DOT@@PAX@0@AAPAU10@@Z 0042cbf0 f i HarrisCorners.obj
 0001:0002bc00       ??$forward@AAPAU?$_List_node@U_PAIR2@@PAX@std@@@std@@YAAAPAU?$_List_node@U_PAIR2@@PAX@0@AAPAU10@@Z 0042cc00 f i HarrisCorners.obj
 0001:0002bc10       ??$forward@AAPAU?$_List_node@U_PAIR@@PAX@std@@@std@@YAAAPAU?$_List_node@U_PAIR@@PAX@0@AAPAU10@@Z 0042cc10 f i HarrisCorners.obj
 0001:0002bc20       ??$forward@ABU_CORNER@@@std@@YAABU_CORNER@@ABU1@@Z 0042cc20 f i HarrisCorners.obj
 0001:0002bc30       ??$forward@ABU_DOT@@@std@@YAABU_DOT@@ABU1@@Z 0042cc30 f i HarrisCorners.obj
 0001:0002bc40       ??$forward@ABU_PAIR2@@@std@@YAABU_PAIR2@@ABU1@@Z 0042cc40 f i HarrisCorners.obj
 0001:0002bc50       ??$forward@ABU_PAIR@@@std@@YAABU_PAIR@@ABU1@@Z 0042cc50 f i HarrisCorners.obj
 0001:0002bc60       ??$forward@U_Container_proxy@std@@@std@@YA$$QAU_Container_proxy@0@AAU10@@Z 0042cc60 f i HarrisCorners.obj
 0001:0002bc70       ??0?$_Iterator012@Ubidirectional_iterator_tag@std@@U_CORNER@@HPBU3@ABU3@U_Iterator_base12@2@@std@@QAE@ABU01@@Z 0042cc70 f i HarrisCorners.obj
 0001:0002bcb0       ??0?$_Iterator012@Ubidirectional_iterator_tag@std@@U_CORNER@@HPBU3@ABU3@U_Iterator_base12@2@@std@@QAE@XZ 0042ccb0 f i HarrisCorners.obj
 0001:0002bce0       ??0?$_Iterator012@Ubidirectional_iterator_tag@std@@U_DOT@@HPBU3@ABU3@U_Iterator_base12@2@@std@@QAE@ABU01@@Z 0042cce0 f i HarrisCorners.obj
 0001:0002bd20       ??0?$_Iterator012@Ubidirectional_iterator_tag@std@@U_DOT@@HPBU3@ABU3@U_Iterator_base12@2@@std@@QAE@XZ 0042cd20 f i HarrisCorners.obj
 0001:0002bd50       ??0?$_Iterator012@Ubidirectional_iterator_tag@std@@U_PAIR2@@HPBU3@ABU3@U_Iterator_base12@2@@std@@QAE@ABU01@@Z 0042cd50 f i HarrisCorners.obj
 0001:0002bd90       ??0?$_Iterator012@Ubidirectional_iterator_tag@std@@U_PAIR2@@HPBU3@ABU3@U_Iterator_base12@2@@std@@QAE@XZ 0042cd90 f i HarrisCorners.obj
 0001:0002bdc0       ??0?$_Iterator012@Ubidirectional_iterator_tag@std@@U_PAIR@@HPBU3@ABU3@U_Iterator_base12@2@@std@@QAE@ABU01@@Z 0042cdc0 f i HarrisCorners.obj
 0001:0002be00       ??0?$_Iterator012@Ubidirectional_iterator_tag@std@@U_PAIR@@HPBU3@ABU3@U_Iterator_base12@2@@std@@QAE@XZ 0042ce00 f i HarrisCorners.obj
 0001:0002be30       ??0?$_List_alloc@$0A@U?$_List_base_types@U_CORNER@@V?$allocator@U_CORNER@@@std@@@std@@@std@@QAE@ABV?$allocator@U_CORNER@@@1@@Z 0042ce30 f i HarrisCorners.obj
 0001:0002bf20       ??0?$_List_alloc@$0A@U?$_List_base_types@U_DOT@@V?$allocator@U_DOT@@@std@@@std@@@std@@QAE@ABV?$allocator@U_DOT@@@1@@Z 0042cf20 f i HarrisCorners.obj
 0001:0002c010       ??0?$_List_alloc@$0A@U?$_List_base_types@U_PAIR2@@V?$allocator@U_PAIR2@@@std@@@std@@@std@@QAE@ABV?$allocator@U_PAIR2@@@1@@Z 0042d010 f i HarrisCorners.obj
 0001:0002c100       ??0?$_List_alloc@$0A@U?$_List_base_types@U_PAIR@@V?$allocator@U_PAIR@@@std@@@std@@@std@@QAE@ABV?$allocator@U_PAIR@@@1@@Z 0042d100 f i HarrisCorners.obj
 0001:0002c1f0       ??0?$_List_buy@U_CORNER@@V?$allocator@U_CORNER@@@std@@@std@@QAE@ABV?$allocator@U_CORNER@@@1@@Z 0042d1f0 f i HarrisCorners.obj
 0001:0002c230       ??0?$_List_buy@U_DOT@@V?$allocator@U_DOT@@@std@@@std@@QAE@ABV?$allocator@U_DOT@@@1@@Z 0042d230 f i HarrisCorners.obj
 0001:0002c270       ??0?$_List_buy@U_PAIR2@@V?$allocator@U_PAIR2@@@std@@@std@@QAE@ABV?$allocator@U_PAIR2@@@1@@Z 0042d270 f i HarrisCorners.obj
 0001:0002c2b0       ??0?$_List_buy@U_PAIR@@V?$allocator@U_PAIR@@@std@@@std@@QAE@ABV?$allocator@U_PAIR@@@1@@Z 0042d2b0 f i HarrisCorners.obj
 0001:0002c2f0       ??0?$_List_const_iterator@V?$_List_val@U?$_List_simple_types@U_CORNER@@@std@@@std@@@std@@QAE@ABV01@@Z 0042d2f0 f i HarrisCorners.obj
 0001:0002c330       ??0?$_List_const_iterator@V?$_List_val@U?$_List_simple_types@U_CORNER@@@std@@@std@@@std@@QAE@PAU?$_List_node@U_CORNER@@PAX@1@PBV?$_List_val@U?$_List_simple_types@U_CORNER@@@std@@@1@@Z 0042d330 f i HarrisCorners.obj
 0001:0002c370       ??0?$_List_const_iterator@V?$_List_val@U?$_List_simple_types@U_CORNER@@@std@@@std@@@std@@QAE@XZ 0042d370 f i HarrisCorners.obj
 0001:0002c3a0       ??0?$_List_const_iterator@V?$_List_val@U?$_List_simple_types@U_DOT@@@std@@@std@@@std@@QAE@ABV01@@Z 0042d3a0 f i HarrisCorners.obj
 0001:0002c3e0       ??0?$_List_const_iterator@V?$_List_val@U?$_List_simple_types@U_DOT@@@std@@@std@@@std@@QAE@PAU?$_List_node@U_DOT@@PAX@1@PBV?$_List_val@U?$_List_simple_types@U_DOT@@@std@@@1@@Z 0042d3e0 f i HarrisCorners.obj
 0001:0002c420       ??0?$_List_const_iterator@V?$_List_val@U?$_List_simple_types@U_DOT@@@std@@@std@@@std@@QAE@XZ 0042d420 f i HarrisCorners.obj
 0001:0002c450       ??0?$_List_const_iterator@V?$_List_val@U?$_List_simple_types@U_PAIR2@@@std@@@std@@@std@@QAE@ABV01@@Z 0042d450 f i HarrisCorners.obj
 0001:0002c490       ??0?$_List_const_iterator@V?$_List_val@U?$_List_simple_types@U_PAIR2@@@std@@@std@@@std@@QAE@PAU?$_List_node@U_PAIR2@@PAX@1@PBV?$_List_val@U?$_List_simple_types@U_PAIR2@@@std@@@1@@Z 0042d490 f i HarrisCorners.obj
 0001:0002c4d0       ??0?$_List_const_iterator@V?$_List_val@U?$_List_simple_types@U_PAIR2@@@std@@@std@@@std@@QAE@XZ 0042d4d0 f i HarrisCorners.obj
 0001:0002c500       ??0?$_List_const_iterator@V?$_List_val@U?$_List_simple_types@U_PAIR@@@std@@@std@@@std@@QAE@ABV01@@Z 0042d500 f i HarrisCorners.obj
 0001:0002c540       ??0?$_List_const_iterator@V?$_List_val@U?$_List_simple_types@U_PAIR@@@std@@@std@@@std@@QAE@PAU?$_List_node@U_PAIR@@PAX@1@PBV?$_List_val@U?$_List_simple_types@U_PAIR@@@std@@@1@@Z 0042d540 f i HarrisCorners.obj
 0001:0002c580       ??0?$_List_const_iterator@V?$_List_val@U?$_List_simple_types@U_PAIR@@@std@@@std@@@std@@QAE@XZ 0042d580 f i HarrisCorners.obj
 0001:0002c5b0       ??0?$_List_iterator@V?$_List_val@U?$_List_simple_types@U_CORNER@@@std@@@std@@@std@@QAE@ABV01@@Z 0042d5b0 f i HarrisCorners.obj
 0001:0002c5f0       ??0?$_List_iterator@V?$_List_val@U?$_List_simple_types@U_CORNER@@@std@@@std@@@std@@QAE@PAU?$_List_node@U_CORNER@@PAX@1@PBV?$_List_val@U?$_List_simple_types@U_CORNER@@@std@@@1@@Z 0042d5f0 f i HarrisCorners.obj
 0001:0002c630       ??0?$_List_iterator@V?$_List_val@U?$_List_simple_types@U_CORNER@@@std@@@std@@@std@@QAE@XZ 0042d630 f i HarrisCorners.obj
 0001:0002c660       ??0?$_List_iterator@V?$_List_val@U?$_List_simple_types@U_DOT@@@std@@@std@@@std@@QAE@ABV01@@Z 0042d660 f i HarrisCorners.obj
 0001:0002c6a0       ??0?$_List_iterator@V?$_List_val@U?$_List_simple_types@U_DOT@@@std@@@std@@@std@@QAE@PAU?$_List_node@U_DOT@@PAX@1@PBV?$_List_val@U?$_List_simple_types@U_DOT@@@std@@@1@@Z 0042d6a0 f i HarrisCorners.obj
 0001:0002c6e0       ??0?$_List_iterator@V?$_List_val@U?$_List_simple_types@U_DOT@@@std@@@std@@@std@@QAE@XZ 0042d6e0 f i HarrisCorners.obj
 0001:0002c710       ??0?$_List_iterator@V?$_List_val@U?$_List_simple_types@U_PAIR2@@@std@@@std@@@std@@QAE@ABV01@@Z 0042d710 f i HarrisCorners.obj
 0001:0002c750       ??0?$_List_iterator@V?$_List_val@U?$_List_simple_types@U_PAIR2@@@std@@@std@@@std@@QAE@PAU?$_List_node@U_PAIR2@@PAX@1@PBV?$_List_val@U?$_List_simple_types@U_PAIR2@@@std@@@1@@Z 0042d750 f i HarrisCorners.obj
 0001:0002c790       ??0?$_List_iterator@V?$_List_val@U?$_List_simple_types@U_PAIR2@@@std@@@std@@@std@@QAE@XZ 0042d790 f i HarrisCorners.obj
 0001:0002c7c0       ??0?$_List_iterator@V?$_List_val@U?$_List_simple_types@U_PAIR@@@std@@@std@@@std@@QAE@ABV01@@Z 0042d7c0 f i HarrisCorners.obj
 0001:0002c800       ??0?$_List_iterator@V?$_List_val@U?$_List_simple_types@U_PAIR@@@std@@@std@@@std@@QAE@PAU?$_List_node@U_PAIR@@PAX@1@PBV?$_List_val@U?$_List_simple_types@U_PAIR@@@std@@@1@@Z 0042d800 f i HarrisCorners.obj
 0001:0002c840       ??0?$_List_iterator@V?$_List_val@U?$_List_simple_types@U_PAIR@@@std@@@std@@@std@@QAE@XZ 0042d840 f i HarrisCorners.obj
 0001:0002c870       ??0?$_List_unchecked_const_iterator@V?$_List_val@U?$_List_simple_types@U_CORNER@@@std@@@std@@U_Iterator_base0@2@@std@@QAE@PAU?$_List_node@U_CORNER@@PAX@1@PBV?$_List_val@U?$_List_simple_types@U_CORNER@@@std@@@1@@Z 0042d870 f i HarrisCorners.obj
 0001:0002c8c0       ??0?$_List_unchecked_const_iterator@V?$_List_val@U?$_List_simple_types@U_CORNER@@@std@@@std@@U_Iterator_base12@2@@std@@QAE@ABV01@@Z 0042d8c0 f i HarrisCorners.obj
 0001:0002c910       ??0?$_List_unchecked_const_iterator@V?$_List_val@U?$_List_simple_types@U_CORNER@@@std@@@std@@U_Iterator_base12@2@@std@@QAE@PAU?$_List_node@U_CORNER@@PAX@1@PBV?$_List_val@U?$_List_simple_types@U_CORNER@@@std@@@1@@Z 0042d910 f i HarrisCorners.obj
 0001:0002c9b0       ??0?$_List_unchecked_const_iterator@V?$_List_val@U?$_List_simple_types@U_CORNER@@@std@@@std@@U_Iterator_base12@2@@std@@QAE@XZ 0042d9b0 f i HarrisCorners.obj
 0001:0002c9f0       ??0?$_List_unchecked_const_iterator@V?$_List_val@U?$_List_simple_types@U_DOT@@@std@@@std@@U_Iterator_base0@2@@std@@QAE@PAU?$_List_node@U_DOT@@PAX@1@PBV?$_List_val@U?$_List_simple_types@U_DOT@@@std@@@1@@Z 0042d9f0 f i HarrisCorners.obj
 0001:0002ca40       ??0?$_List_unchecked_const_iterator@V?$_List_val@U?$_List_simple_types@U_DOT@@@std@@@std@@U_Iterator_base12@2@@std@@QAE@ABV01@@Z 0042da40 f i HarrisCorners.obj
 0001:0002ca90       ??0?$_List_unchecked_const_iterator@V?$_List_val@U?$_List_simple_types@U_DOT@@@std@@@std@@U_Iterator_base12@2@@std@@QAE@PAU?$_List_node@U_DOT@@PAX@1@PBV?$_List_val@U?$_List_simple_types@U_DOT@@@std@@@1@@Z 0042da90 f i HarrisCorners.obj
 0001:0002cb30       ??0?$_List_unchecked_const_iterator@V?$_List_val@U?$_List_simple_types@U_DOT@@@std@@@std@@U_Iterator_base12@2@@std@@QAE@XZ 0042db30 f i HarrisCorners.obj
 0001:0002cb70       ??0?$_List_unchecked_const_iterator@V?$_List_val@U?$_List_simple_types@U_PAIR2@@@std@@@std@@U_Iterator_base0@2@@std@@QAE@PAU?$_List_node@U_PAIR2@@PAX@1@PBV?$_List_val@U?$_List_simple_types@U_PAIR2@@@std@@@1@@Z 0042db70 f i HarrisCorners.obj
 0001:0002cbc0       ??0?$_List_unchecked_const_iterator@V?$_List_val@U?$_List_simple_types@U_PAIR2@@@std@@@std@@U_Iterator_base12@2@@std@@QAE@ABV01@@Z 0042dbc0 f i HarrisCorners.obj
 0001:0002cc10       ??0?$_List_unchecked_const_iterator@V?$_List_val@U?$_List_simple_types@U_PAIR2@@@std@@@std@@U_Iterator_base12@2@@std@@QAE@PAU?$_List_node@U_PAIR2@@PAX@1@PBV?$_List_val@U?$_List_simple_types@U_PAIR2@@@std@@@1@@Z 0042dc10 f i HarrisCorners.obj
 0001:0002ccb0       ??0?$_List_unchecked_const_iterator@V?$_List_val@U?$_List_simple_types@U_PAIR2@@@std@@@std@@U_Iterator_base12@2@@std@@QAE@XZ 0042dcb0 f i HarrisCorners.obj
 0001:0002ccf0       ??0?$_List_unchecked_const_iterator@V?$_List_val@U?$_List_simple_types@U_PAIR@@@std@@@std@@U_Iterator_base0@2@@std@@QAE@PAU?$_List_node@U_PAIR@@PAX@1@PBV?$_List_val@U?$_List_simple_types@U_PAIR@@@std@@@1@@Z 0042dcf0 f i HarrisCorners.obj
 0001:0002cd40       ??0?$_List_unchecked_const_iterator@V?$_List_val@U?$_List_simple_types@U_PAIR@@@std@@@std@@U_Iterator_base12@2@@std@@QAE@ABV01@@Z 0042dd40 f i HarrisCorners.obj
 0001:0002cd90       ??0?$_List_unchecked_const_iterator@V?$_List_val@U?$_List_simple_types@U_PAIR@@@std@@@std@@U_Iterator_base12@2@@std@@QAE@PAU?$_List_node@U_PAIR@@PAX@1@PBV?$_List_val@U?$_List_simple_types@U_PAIR@@@std@@@1@@Z 0042dd90 f i HarrisCorners.obj
 0001:0002ce30       ??0?$_List_unchecked_const_iterator@V?$_List_val@U?$_List_simple_types@U_PAIR@@@std@@@std@@U_Iterator_base12@2@@std@@QAE@XZ 0042de30 f i HarrisCorners.obj
 0001:0002ce70       ??0?$_List_unchecked_iterator@V?$_List_val@U?$_List_simple_types@U_CORNER@@@std@@@std@@@std@@QAE@PAU?$_List_node@U_CORNER@@PAX@1@PBV?$_List_val@U?$_List_simple_types@U_CORNER@@@std@@@1@@Z 0042de70 f i HarrisCorners.obj
 0001:0002ceb0       ??0?$_List_unchecked_iterator@V?$_List_val@U?$_List_simple_types@U_DOT@@@std@@@std@@@std@@QAE@PAU?$_List_node@U_DOT@@PAX@1@PBV?$_List_val@U?$_List_simple_types@U_DOT@@@std@@@1@@Z 0042deb0 f i HarrisCorners.obj
 0001:0002cef0       ??0?$_List_unchecked_iterator@V?$_List_val@U?$_List_simple_types@U_PAIR2@@@std@@@std@@@std@@QAE@PAU?$_List_node@U_PAIR2@@PAX@1@PBV?$_List_val@U?$_List_simple_types@U_PAIR2@@@std@@@1@@Z 0042def0 f i HarrisCorners.obj
 0001:0002cf30       ??0?$_List_unchecked_iterator@V?$_List_val@U?$_List_simple_types@U_PAIR@@@std@@@std@@@std@@QAE@PAU?$_List_node@U_PAIR@@PAX@1@PBV?$_List_val@U?$_List_simple_types@U_PAIR@@@std@@@1@@Z 0042df30 f i HarrisCorners.obj
 0001:0002cf70       ??0?$_List_val@U?$_List_simple_types@U_CORNER@@@std@@@std@@QAE@XZ 0042df70 f i HarrisCorners.obj
 0001:0002cfd0       ??0?$_List_val@U?$_List_simple_types@U_DOT@@@std@@@std@@QAE@XZ 0042dfd0 f i HarrisCorners.obj
 0001:0002d030       ??0?$_List_val@U?$_List_simple_types@U_PAIR2@@@std@@@std@@QAE@XZ 0042e030 f i HarrisCorners.obj
 0001:0002d090       ??0?$_List_val@U?$_List_simple_types@U_PAIR@@@std@@@std@@QAE@XZ 0042e090 f i HarrisCorners.obj
 0001:0002d0f0       ??0?$_Wrap_alloc@V?$allocator@U?$_List_node@U_CORNER@@PAX@std@@@std@@@std@@QAE@XZ 0042e0f0 f i HarrisCorners.obj
 0001:0002d120       ??0?$_Wrap_alloc@V?$allocator@U?$_List_node@U_DOT@@PAX@std@@@std@@@std@@QAE@XZ 0042e120 f i HarrisCorners.obj
 0001:0002d150       ??0?$_Wrap_alloc@V?$allocator@U?$_List_node@U_PAIR2@@PAX@std@@@std@@@std@@QAE@XZ 0042e150 f i HarrisCorners.obj
 0001:0002d180       ??0?$_Wrap_alloc@V?$allocator@U?$_List_node@U_PAIR@@PAX@std@@@std@@@std@@QAE@XZ 0042e180 f i HarrisCorners.obj
 0001:0002d1b0       ??0?$_Wrap_alloc@V?$allocator@U_Container_proxy@std@@@std@@@std@@QAE@XZ 0042e1b0 f i HarrisCorners.obj
 0001:0002d1e0       ??0?$allocator@U?$_List_node@U_CORNER@@PAX@std@@@std@@QAE@XZ 0042e1e0 f i HarrisCorners.obj
 0001:0002d200       ??0?$allocator@U?$_List_node@U_DOT@@PAX@std@@@std@@QAE@XZ 0042e200 f i HarrisCorners.obj
 0001:0002d220       ??0?$allocator@U?$_List_node@U_PAIR2@@PAX@std@@@std@@QAE@XZ 0042e220 f i HarrisCorners.obj
 0001:0002d240       ??0?$allocator@U?$_List_node@U_PAIR@@PAX@std@@@std@@QAE@XZ 0042e240 f i HarrisCorners.obj
 0001:0002d260       ??0?$allocator@U_CORNER@@@std@@QAE@XZ 0042e260 f i HarrisCorners.obj
 0001:0002d280       ??0?$allocator@U_Container_proxy@std@@@std@@QAE@XZ 0042e280 f i HarrisCorners.obj
 0001:0002d2a0       ??0?$allocator@U_DOT@@@std@@QAE@XZ 0042e2a0 f i HarrisCorners.obj
 0001:0002d2c0       ??0?$allocator@U_PAIR2@@@std@@QAE@XZ 0042e2c0 f i HarrisCorners.obj
 0001:0002d2e0       ??0?$allocator@U_PAIR@@@std@@QAE@XZ 0042e2e0 f i HarrisCorners.obj
 0001:0002d300       ??0?$list@U_CORNER@@V?$allocator@U_CORNER@@@std@@@std@@QAE@XZ 0042e300 f i HarrisCorners.obj
 0001:0002d350       ??0?$list@U_DOT@@V?$allocator@U_DOT@@@std@@@std@@QAE@XZ 0042e350 f i HarrisCorners.obj
 0001:0002d3a0       ??0?$list@U_PAIR2@@V?$allocator@U_PAIR2@@@std@@@std@@QAE@XZ 0042e3a0 f i HarrisCorners.obj
 0001:0002d3f0       ??0?$list@U_PAIR@@V?$allocator@U_PAIR@@@std@@@std@@QAE@XZ 0042e3f0 f i HarrisCorners.obj
 0001:0002d440       ??0_Container_proxy@std@@QAE@XZ 0042e440 f i HarrisCorners.obj
 0001:0002d480       ??0_Iterator_base12@std@@QAE@ABU01@@Z 0042e480 f i HarrisCorners.obj
 0001:0002d4d0       ??0_Iterator_base12@std@@QAE@XZ 0042e4d0 f i HarrisCorners.obj
 0001:0002d510       ??1?$_Iterator012@Ubidirectional_iterator_tag@std@@U_CORNER@@HPBU3@ABU3@U_Iterator_base12@2@@std@@QAE@XZ 0042e510 f i HarrisCorners.obj
 0001:0002d540       ??1?$_Iterator012@Ubidirectional_iterator_tag@std@@U_DOT@@HPBU3@ABU3@U_Iterator_base12@2@@std@@QAE@XZ 0042e540 f i HarrisCorners.obj
 0001:0002d570       ??1?$_Iterator012@Ubidirectional_iterator_tag@std@@U_PAIR2@@HPBU3@ABU3@U_Iterator_base12@2@@std@@QAE@XZ 0042e570 f i HarrisCorners.obj
 0001:0002d5a0       ??1?$_Iterator012@Ubidirectional_iterator_tag@std@@U_PAIR@@HPBU3@ABU3@U_Iterator_base12@2@@std@@QAE@XZ 0042e5a0 f i HarrisCorners.obj
 0001:0002d5d0       ??1?$_List_alloc@$0A@U?$_List_base_types@U_CORNER@@V?$allocator@U_CORNER@@@std@@@std@@@std@@QAE@XZ 0042e5d0 f i HarrisCorners.obj
 0001:0002d620       ??1?$_List_alloc@$0A@U?$_List_base_types@U_DOT@@V?$allocator@U_DOT@@@std@@@std@@@std@@QAE@XZ 0042e620 f i HarrisCorners.obj
 0001:0002d670       ??1?$_List_alloc@$0A@U?$_List_base_types@U_PAIR2@@V?$allocator@U_PAIR2@@@std@@@std@@@std@@QAE@XZ 0042e670 f i HarrisCorners.obj
 0001:0002d6c0       ??1?$_List_alloc@$0A@U?$_List_base_types@U_PAIR@@V?$allocator@U_PAIR@@@std@@@std@@@std@@QAE@XZ 0042e6c0 f i HarrisCorners.obj
 0001:0002d710       ??1?$_List_buy@U_CORNER@@V?$allocator@U_CORNER@@@std@@@std@@QAE@XZ 0042e710 f i HarrisCorners.obj
 0001:0002d740       ??1?$_List_buy@U_DOT@@V?$allocator@U_DOT@@@std@@@std@@QAE@XZ 0042e740 f i HarrisCorners.obj
 0001:0002d770       ??1?$_List_buy@U_PAIR2@@V?$allocator@U_PAIR2@@@std@@@std@@QAE@XZ 0042e770 f i HarrisCorners.obj
 0001:0002d7a0       ??1?$_List_buy@U_PAIR@@V?$allocator@U_PAIR@@@std@@@std@@QAE@XZ 0042e7a0 f i HarrisCorners.obj
 0001:0002d7d0       ??1?$_List_const_iterator@V?$_List_val@U?$_List_simple_types@U_CORNER@@@std@@@std@@@std@@QAE@XZ 0042e7d0 f i HarrisCorners.obj
 0001:0002d800       ??1?$_List_const_iterator@V?$_List_val@U?$_List_simple_types@U_DOT@@@std@@@std@@@std@@QAE@XZ 0042e800 f i HarrisCorners.obj
 0001:0002d830       ??1?$_List_const_iterator@V?$_List_val@U?$_List_simple_types@U_PAIR2@@@std@@@std@@@std@@QAE@XZ 0042e830 f i HarrisCorners.obj
 0001:0002d860       ??1?$_List_const_iterator@V?$_List_val@U?$_List_simple_types@U_PAIR@@@std@@@std@@@std@@QAE@XZ 0042e860 f i HarrisCorners.obj
 0001:0002d890       ??1?$_List_iterator@V?$_List_val@U?$_List_simple_types@U_CORNER@@@std@@@std@@@std@@QAE@XZ 0042e890 f i HarrisCorners.obj
 0001:0002d8c0       ??1?$_List_iterator@V?$_List_val@U?$_List_simple_types@U_DOT@@@std@@@std@@@std@@QAE@XZ 0042e8c0 f i HarrisCorners.obj
 0001:0002d8f0       ??1?$_List_iterator@V?$_List_val@U?$_List_simple_types@U_PAIR2@@@std@@@std@@@std@@QAE@XZ 0042e8f0 f i HarrisCorners.obj
 0001:0002d920       ??1?$_List_iterator@V?$_List_val@U?$_List_simple_types@U_PAIR@@@std@@@std@@@std@@QAE@XZ 0042e920 f i HarrisCorners.obj
 0001:0002d950       ??1?$_List_unchecked_const_iterator@V?$_List_val@U?$_List_simple_types@U_CORNER@@@std@@@std@@U_Iterator_base12@2@@std@@QAE@XZ 0042e950 f i HarrisCorners.obj
 0001:0002d980       ??1?$_List_unchecked_const_iterator@V?$_List_val@U?$_List_simple_types@U_DOT@@@std@@@std@@U_Iterator_base12@2@@std@@QAE@XZ 0042e980 f i HarrisCorners.obj
 0001:0002d9b0       ??1?$_List_unchecked_const_iterator@V?$_List_val@U?$_List_simple_types@U_PAIR2@@@std@@@std@@U_Iterator_base12@2@@std@@QAE@XZ 0042e9b0 f i HarrisCorners.obj
 0001:0002d9e0       ??1?$_List_unchecked_const_iterator@V?$_List_val@U?$_List_simple_types@U_PAIR@@@std@@@std@@U_Iterator_base12@2@@std@@QAE@XZ 0042e9e0 f i HarrisCorners.obj
 0001:0002da10       ??1?$_List_val@U?$_List_simple_types@U_CORNER@@@std@@@std@@QAE@XZ 0042ea10 f i HarrisCorners.obj
 0001:0002da50       ??1?$_List_val@U?$_List_simple_types@U_DOT@@@std@@@std@@QAE@XZ 0042ea50 f i HarrisCorners.obj
 0001:0002da90       ??1?$_List_val@U?$_List_simple_types@U_PAIR2@@@std@@@std@@QAE@XZ 0042ea90 f i HarrisCorners.obj
 0001:0002dad0       ??1?$_List_val@U?$_List_simple_types@U_PAIR@@@std@@@std@@QAE@XZ 0042ead0 f i HarrisCorners.obj
 0001:0002db10       ??1?$list@U_CORNER@@V?$allocator@U_CORNER@@@std@@@std@@QAE@XZ 0042eb10 f i HarrisCorners.obj
 0001:0002db50       ??1?$list@U_DOT@@V?$allocator@U_DOT@@@std@@@std@@QAE@XZ 0042eb50 f i HarrisCorners.obj
 0001:0002db90       ??1?$list@U_PAIR2@@V?$allocator@U_PAIR2@@@std@@@std@@QAE@XZ 0042eb90 f i HarrisCorners.obj
 0001:0002dbd0       ??1?$list@U_PAIR@@V?$allocator@U_PAIR@@@std@@@std@@QAE@XZ 0042ebd0 f i HarrisCorners.obj
 0001:0002dc10       ??1_Iterator_base12@std@@QAE@XZ 0042ec10 f i HarrisCorners.obj
 0001:0002dcc0       ??2@YAPAXIPAX@Z            0042ecc0 f i HarrisCorners.obj
 0001:0002dcd0       ??3@YAXPAX0@Z              0042ecd0 f i HarrisCorners.obj
 0001:0002dce0       ??4?$_Iterator012@Ubidirectional_iterator_tag@std@@U_CORNER@@HPBU3@ABU3@U_Iterator_base12@2@@std@@QAEAAU01@ABU01@@Z 0042ece0 f i HarrisCorners.obj
 0001:0002dd20       ??4?$_Iterator012@Ubidirectional_iterator_tag@std@@U_DOT@@HPBU3@ABU3@U_Iterator_base12@2@@std@@QAEAAU01@ABU01@@Z 0042ed20 f i HarrisCorners.obj
 0001:0002dd60       ??4?$_Iterator012@Ubidirectional_iterator_tag@std@@U_PAIR2@@HPBU3@ABU3@U_Iterator_base12@2@@std@@QAEAAU01@ABU01@@Z 0042ed60 f i HarrisCorners.obj
 0001:0002dda0       ??4?$_Iterator012@Ubidirectional_iterator_tag@std@@U_PAIR@@HPBU3@ABU3@U_Iterator_base12@2@@std@@QAEAAU01@ABU01@@Z 0042eda0 f i HarrisCorners.obj
 0001:0002dde0       ??4?$_List_const_iterator@V?$_List_val@U?$_List_simple_types@U_CORNER@@@std@@@std@@@std@@QAEAAV01@ABV01@@Z 0042ede0 f i HarrisCorners.obj
 0001:0002de20       ??4?$_List_const_iterator@V?$_List_val@U?$_List_simple_types@U_DOT@@@std@@@std@@@std@@QAEAAV01@ABV01@@Z 0042ee20 f i HarrisCorners.obj
 0001:0002de60       ??4?$_List_const_iterator@V?$_List_val@U?$_List_simple_types@U_PAIR2@@@std@@@std@@@std@@QAEAAV01@ABV01@@Z 0042ee60 f i HarrisCorners.obj
 0001:0002dea0       ??4?$_List_const_iterator@V?$_List_val@U?$_List_simple_types@U_PAIR@@@std@@@std@@@std@@QAEAAV01@ABV01@@Z 0042eea0 f i HarrisCorners.obj
 0001:0002dee0       ??4?$_List_iterator@V?$_List_val@U?$_List_simple_types@U_CORNER@@@std@@@std@@@std@@QAEAAV01@ABV01@@Z 0042eee0 f i HarrisCorners.obj
 0001:0002df20       ??4?$_List_iterator@V?$_List_val@U?$_List_simple_types@U_DOT@@@std@@@std@@@std@@QAEAAV01@ABV01@@Z 0042ef20 f i HarrisCorners.obj
 0001:0002df60       ??4?$_List_iterator@V?$_List_val@U?$_List_simple_types@U_PAIR2@@@std@@@std@@@std@@QAEAAV01@ABV01@@Z 0042ef60 f i HarrisCorners.obj
 0001:0002dfa0       ??4?$_List_iterator@V?$_List_val@U?$_List_simple_types@U_PAIR@@@std@@@std@@@std@@QAEAAV01@ABV01@@Z 0042efa0 f i HarrisCorners.obj
 0001:0002dfe0       ??4?$_List_unchecked_const_iterator@V?$_List_val@U?$_List_simple_types@U_CORNER@@@std@@@std@@U_Iterator_base12@2@@std@@QAEAAV01@ABV01@@Z 0042efe0 f i HarrisCorners.obj
 0001:0002e030       ??4?$_List_unchecked_const_iterator@V?$_List_val@U?$_List_simple_types@U_DOT@@@std@@@std@@U_Iterator_base12@2@@std@@QAEAAV01@ABV01@@Z 0042f030 f i HarrisCorners.obj
 0001:0002e080       ??4?$_List_unchecked_const_iterator@V?$_List_val@U?$_List_simple_types@U_PAIR2@@@std@@@std@@U_Iterator_base12@2@@std@@QAEAAV01@ABV01@@Z 0042f080 f i HarrisCorners.obj
 0001:0002e0d0       ??4?$_List_unchecked_const_iterator@V?$_List_val@U?$_List_simple_types@U_PAIR@@@std@@@std@@U_Iterator_base12@2@@std@@QAEAAV01@ABV01@@Z 0042f0d0 f i HarrisCorners.obj
 0001:0002e120       ??4_Iterator_base12@std@@QAEAAU01@ABU01@@Z 0042f120 f i HarrisCorners.obj
 0001:0002e250       ??8?$_List_const_iterator@V?$_List_val@U?$_List_simple_types@U_CORNER@@@std@@@std@@@std@@QBE_NABV01@@Z 0042f250 f i HarrisCorners.obj
 0001:0002e390       ??8?$_List_const_iterator@V?$_List_val@U?$_List_simple_types@U_DOT@@@std@@@std@@@std@@QBE_NABV01@@Z 0042f390 f i HarrisCorners.obj
 0001:0002e4d0       ??8?$_List_const_iterator@V?$_List_val@U?$_List_simple_types@U_PAIR2@@@std@@@std@@@std@@QBE_NABV01@@Z 0042f4d0 f i HarrisCorners.obj
 0001:0002e610       ??8?$_List_const_iterator@V?$_List_val@U?$_List_simple_types@U_PAIR@@@std@@@std@@@std@@QBE_NABV01@@Z 0042f610 f i HarrisCorners.obj
 0001:0002e750       ??9?$_List_const_iterator@V?$_List_val@U?$_List_simple_types@U_CORNER@@@std@@@std@@@std@@QBE_NABV01@@Z 0042f750 f i HarrisCorners.obj
 0001:0002e7b0       ??9?$_List_const_iterator@V?$_List_val@U?$_List_simple_types@U_DOT@@@std@@@std@@@std@@QBE_NABV01@@Z 0042f7b0 f i HarrisCorners.obj
 0001:0002e810       ??9?$_List_const_iterator@V?$_List_val@U?$_List_simple_types@U_PAIR2@@@std@@@std@@@std@@QBE_NABV01@@Z 0042f810 f i HarrisCorners.obj
 0001:0002e870       ??9?$_List_const_iterator@V?$_List_val@U?$_List_simple_types@U_PAIR@@@std@@@std@@@std@@QBE_NABV01@@Z 0042f870 f i HarrisCorners.obj
 0001:0002e8d0       ??C?$_List_iterator@V?$_List_val@U?$_List_simple_types@U_CORNER@@@std@@@std@@@std@@QBEPAU_CORNER@@XZ 0042f8d0 f i HarrisCorners.obj
 0001:0002e910       ??C?$_List_iterator@V?$_List_val@U?$_List_simple_types@U_DOT@@@std@@@std@@@std@@QBEPAU_DOT@@XZ 0042f910 f i HarrisCorners.obj
 0001:0002e950       ??C?$_List_iterator@V?$_List_val@U?$_List_simple_types@U_PAIR2@@@std@@@std@@@std@@QBEPAU_PAIR2@@XZ 0042f950 f i HarrisCorners.obj
 0001:0002e990       ??C?$_List_iterator@V?$_List_val@U?$_List_simple_types@U_PAIR@@@std@@@std@@@std@@QBEPAU_PAIR@@XZ 0042f990 f i HarrisCorners.obj
 0001:0002e9d0       ??D?$_List_const_iterator@V?$_List_val@U?$_List_simple_types@U_CORNER@@@std@@@std@@@std@@QBEABU_CORNER@@XZ 0042f9d0 f i HarrisCorners.obj
 0001:0002eaf0       ??D?$_List_const_iterator@V?$_List_val@U?$_List_simple_types@U_DOT@@@std@@@std@@@std@@QBEABU_DOT@@XZ 0042faf0 f i HarrisCorners.obj
 0001:0002ec10       ??D?$_List_const_iterator@V?$_List_val@U?$_List_simple_types@U_PAIR2@@@std@@@std@@@std@@QBEABU_PAIR2@@XZ 0042fc10 f i HarrisCorners.obj
 0001:0002ed30       ??D?$_List_const_iterator@V?$_List_val@U?$_List_simple_types@U_PAIR@@@std@@@std@@@std@@QBEABU_PAIR@@XZ 0042fd30 f i HarrisCorners.obj
 0001:0002ee50       ??D?$_List_iterator@V?$_List_val@U?$_List_simple_types@U_CORNER@@@std@@@std@@@std@@QBEAAU_CORNER@@XZ 0042fe50 f i HarrisCorners.obj
 0001:0002ee80       ??D?$_List_iterator@V?$_List_val@U?$_List_simple_types@U_DOT@@@std@@@std@@@std@@QBEAAU_DOT@@XZ 0042fe80 f i HarrisCorners.obj
 0001:0002eeb0       ??D?$_List_iterator@V?$_List_val@U?$_List_simple_types@U_PAIR2@@@std@@@std@@@std@@QBEAAU_PAIR2@@XZ 0042feb0 f i HarrisCorners.obj
 0001:0002eee0       ??D?$_List_iterator@V?$_List_val@U?$_List_simple_types@U_PAIR@@@std@@@std@@@std@@QBEAAU_PAIR@@XZ 0042fee0 f i HarrisCorners.obj
 0001:0002ef10       ??E?$_List_const_iterator@V?$_List_val@U?$_List_simple_types@U_CORNER@@@std@@@std@@@std@@QAEAAV01@XZ 0042ff10 f i HarrisCorners.obj
 0001:0002f040       ??E?$_List_const_iterator@V?$_List_val@U?$_List_simple_types@U_DOT@@@std@@@std@@@std@@QAE?AV01@H@Z 00430040 f i HarrisCorners.obj
 0001:0002f150       ??E?$_List_const_iterator@V?$_List_val@U?$_List_simple_types@U_DOT@@@std@@@std@@@std@@QAEAAV01@XZ 00430150 f i HarrisCorners.obj
 0001:0002f280       ??E?$_List_const_iterator@V?$_List_val@U?$_List_simple_types@U_PAIR2@@@std@@@std@@@std@@QAE?AV01@H@Z 00430280 f i HarrisCorners.obj
 0001:0002f390       ??E?$_List_const_iterator@V?$_List_val@U?$_List_simple_types@U_PAIR2@@@std@@@std@@@std@@QAEAAV01@XZ 00430390 f i HarrisCorners.obj
 0001:0002f4c0       ??E?$_List_const_iterator@V?$_List_val@U?$_List_simple_types@U_PAIR@@@std@@@std@@@std@@QAE?AV01@H@Z 004304c0 f i HarrisCorners.obj
 0001:0002f5d0       ??E?$_List_const_iterator@V?$_List_val@U?$_List_simple_types@U_PAIR@@@std@@@std@@@std@@QAEAAV01@XZ 004305d0 f i HarrisCorners.obj
 0001:0002f700       ??E?$_List_iterator@V?$_List_val@U?$_List_simple_types@U_CORNER@@@std@@@std@@@std@@QAE?AV01@H@Z 00430700 f i HarrisCorners.obj
 0001:0002f810       ??E?$_List_iterator@V?$_List_val@U?$_List_simple_types@U_CORNER@@@std@@@std@@@std@@QAEAAV01@XZ 00430810 f i HarrisCorners.obj
 0001:0002f840       ??E?$_List_iterator@V?$_List_val@U?$_List_simple_types@U_DOT@@@std@@@std@@@std@@QAE?AV01@H@Z 00430840 f i HarrisCorners.obj
 0001:0002f950       ??E?$_List_iterator@V?$_List_val@U?$_List_simple_types@U_DOT@@@std@@@std@@@std@@QAEAAV01@XZ 00430950 f i HarrisCorners.obj
 0001:0002f980       ??E?$_List_iterator@V?$_List_val@U?$_List_simple_types@U_PAIR2@@@std@@@std@@@std@@QAE?AV01@H@Z 00430980 f i HarrisCorners.obj
 0001:0002fa90       ??E?$_List_iterator@V?$_List_val@U?$_List_simple_types@U_PAIR2@@@std@@@std@@@std@@QAEAAV01@XZ 00430a90 f i HarrisCorners.obj
 0001:0002fac0       ??E?$_List_iterator@V?$_List_val@U?$_List_simple_types@U_PAIR@@@std@@@std@@@std@@QAE?AV01@H@Z 00430ac0 f i HarrisCorners.obj
 0001:0002fbd0       ??E?$_List_iterator@V?$_List_val@U?$_List_simple_types@U_PAIR@@@std@@@std@@@std@@QAEAAV01@XZ 00430bd0 f i HarrisCorners.obj
 0001:0002fc00       ?_Adopt@_Iterator_base0@std@@QAEXPBX@Z 00430c00 f i HarrisCorners.obj
 0001:0002fc20       ?_Adopt@_Iterator_base12@std@@QAEXPBU_Container_base12@2@@Z 00430c20 f i HarrisCorners.obj
 0001:0002fdd0       ?_Alloc_proxy@?$_List_alloc@$0A@U?$_List_base_types@U_CORNER@@V?$allocator@U_CORNER@@@std@@@std@@@std@@QAEXXZ 00430dd0 f i HarrisCorners.obj
 0001:0002fe90       ?_Alloc_proxy@?$_List_alloc@$0A@U?$_List_base_types@U_DOT@@V?$allocator@U_DOT@@@std@@@std@@@std@@QAEXXZ 00430e90 f i HarrisCorners.obj
 0001:0002ff50       ?_Alloc_proxy@?$_List_alloc@$0A@U?$_List_base_types@U_PAIR2@@V?$allocator@U_PAIR2@@@std@@@std@@@std@@QAEXXZ 00430f50 f i HarrisCorners.obj
 0001:00030010       ?_Alloc_proxy@?$_List_alloc@$0A@U?$_List_base_types@U_PAIR@@V?$allocator@U_PAIR@@@std@@@std@@@std@@QAEXXZ 00431010 f i HarrisCorners.obj
 0001:000300d0       ?_Buyheadnode@?$_List_alloc@$0A@U?$_List_base_types@U_CORNER@@V?$allocator@U_CORNER@@@std@@@std@@@std@@QAEPAU?$_List_node@U_CORNER@@PAX@2@XZ 004310d0 f i HarrisCorners.obj
 0001:00030110       ?_Buyheadnode@?$_List_alloc@$0A@U?$_List_base_types@U_DOT@@V?$allocator@U_DOT@@@std@@@std@@@std@@QAEPAU?$_List_node@U_DOT@@PAX@2@XZ 00431110 f i HarrisCorners.obj
 0001:00030150       ?_Buyheadnode@?$_List_alloc@$0A@U?$_List_base_types@U_PAIR2@@V?$allocator@U_PAIR2@@@std@@@std@@@std@@QAEPAU?$_List_node@U_PAIR2@@PAX@2@XZ 00431150 f i HarrisCorners.obj
 0001:00030190       ?_Buyheadnode@?$_List_alloc@$0A@U?$_List_base_types@U_PAIR@@V?$allocator@U_PAIR@@@std@@@std@@@std@@QAEPAU?$_List_node@U_PAIR@@PAX@2@XZ 00431190 f i HarrisCorners.obj
 0001:000301d0       ?_Buynode0@?$_List_alloc@$0A@U?$_List_base_types@U_CORNER@@V?$allocator@U_CORNER@@@std@@@std@@@std@@QAEPAU?$_List_node@U_CORNER@@PAX@2@PAU32@0@Z 004311d0 f i HarrisCorners.obj
 0001:00030370       ?_Buynode0@?$_List_alloc@$0A@U?$_List_base_types@U_DOT@@V?$allocator@U_DOT@@@std@@@std@@@std@@QAEPAU?$_List_node@U_DOT@@PAX@2@PAU32@0@Z 00431370 f i HarrisCorners.obj
 0001:00030510       ?_Buynode0@?$_List_alloc@$0A@U?$_List_base_types@U_PAIR2@@V?$allocator@U_PAIR2@@@std@@@std@@@std@@QAEPAU?$_List_node@U_PAIR2@@PAX@2@PAU32@0@Z 00431510 f i HarrisCorners.obj
 0001:000306b0       ?_Buynode0@?$_List_alloc@$0A@U?$_List_base_types@U_PAIR@@V?$allocator@U_PAIR@@@std@@@std@@@std@@QAEPAU?$_List_node@U_PAIR@@PAX@2@PAU32@0@Z 004316b0 f i HarrisCorners.obj
 0001:00030850       ?_Clrcont@_Iterator_base12@std@@QAEXXZ 00431850 f i HarrisCorners.obj
 0001:00030880       ?_Free_proxy@?$_List_alloc@$0A@U?$_List_base_types@U_CORNER@@V?$allocator@U_CORNER@@@std@@@std@@@std@@QAEXXZ 00431880 f i HarrisCorners.obj
 0001:00030940       ?_Free_proxy@?$_List_alloc@$0A@U?$_List_base_types@U_DOT@@V?$allocator@U_DOT@@@std@@@std@@@std@@QAEXXZ 00431940 f i HarrisCorners.obj
 0001:00030a00       ?_Free_proxy@?$_List_alloc@$0A@U?$_List_base_types@U_PAIR2@@V?$allocator@U_PAIR2@@@std@@@std@@@std@@QAEXXZ 00431a00 f i HarrisCorners.obj
 0001:00030ac0       ?_Free_proxy@?$_List_alloc@$0A@U?$_List_base_types@U_PAIR@@V?$allocator@U_PAIR@@@std@@@std@@@std@@QAEXXZ 00431ac0 f i HarrisCorners.obj
 0001:00030b80       ?_Freeheadnode@?$_List_alloc@$0A@U?$_List_base_types@U_CORNER@@V?$allocator@U_CORNER@@@std@@@std@@@std@@QAEXPAU?$_List_node@U_CORNER@@PAX@2@@Z 00431b80 f i HarrisCorners.obj
 0001:00030c40       ?_Freeheadnode@?$_List_alloc@$0A@U?$_List_base_types@U_DOT@@V?$allocator@U_DOT@@@std@@@std@@@std@@QAEXPAU?$_List_node@U_DOT@@PAX@2@@Z 00431c40 f i HarrisCorners.obj
 0001:00030d00       ?_Freeheadnode@?$_List_alloc@$0A@U?$_List_base_types@U_PAIR2@@V?$allocator@U_PAIR2@@@std@@@std@@@std@@QAEXPAU?$_List_node@U_PAIR2@@PAX@2@@Z 00431d00 f i HarrisCorners.obj
 0001:00030dc0       ?_Freeheadnode@?$_List_alloc@$0A@U?$_List_base_types@U_PAIR@@V?$allocator@U_PAIR@@@std@@@std@@@std@@QAEXPAU?$_List_node@U_PAIR@@PAX@2@@Z 00431dc0 f i HarrisCorners.obj
 0001:00030e80       ?_Freenode@?$_List_buy@U_CORNER@@V?$allocator@U_CORNER@@@std@@@std@@QAEXPAU?$_List_node@U_CORNER@@PAX@2@@Z 00431e80 f i HarrisCorners.obj
 0001:00030f70       ?_Freenode@?$_List_buy@U_DOT@@V?$allocator@U_DOT@@@std@@@std@@QAEXPAU?$_List_node@U_DOT@@PAX@2@@Z 00431f70 f i HarrisCorners.obj
 0001:00031060       ?_Freenode@?$_List_buy@U_PAIR2@@V?$allocator@U_PAIR2@@@std@@@std@@QAEXPAU?$_List_node@U_PAIR2@@PAX@2@@Z 00432060 f i HarrisCorners.obj
 0001:00031150       ?_Freenode@?$_List_buy@U_PAIR@@V?$allocator@U_PAIR@@@std@@@std@@QAEXPAU?$_List_node@U_PAIR@@PAX@2@@Z 00432150 f i HarrisCorners.obj
 0001:00031240       ?_Getal@?$_List_alloc@$0A@U?$_List_base_types@U_CORNER@@V?$allocator@U_CORNER@@@std@@@std@@@std@@QBE?AU?$_Wrap_alloc@V?$allocator@U?$_List_node@U_CORNER@@PAX@std@@@std@@@2@XZ 00432240 f i HarrisCorners.obj
 0001:00031280       ?_Getal@?$_List_alloc@$0A@U?$_List_base_types@U_DOT@@V?$allocator@U_DOT@@@std@@@std@@@std@@QBE?AU?$_Wrap_alloc@V?$allocator@U?$_List_node@U_DOT@@PAX@std@@@std@@@2@XZ 00432280 f i HarrisCorners.obj
 0001:000312c0       ?_Getal@?$_List_alloc@$0A@U?$_List_base_types@U_PAIR2@@V?$allocator@U_PAIR2@@@std@@@std@@@std@@QBE?AU?$_Wrap_alloc@V?$allocator@U?$_List_node@U_PAIR2@@PAX@std@@@std@@@2@XZ 004322c0 f i HarrisCorners.obj
 0001:00031300       ?_Getal@?$_List_alloc@$0A@U?$_List_base_types@U_PAIR@@V?$allocator@U_PAIR@@@std@@@std@@@std@@QBE?AU?$_Wrap_alloc@V?$allocator@U?$_List_node@U_PAIR@@PAX@std@@@std@@@2@XZ 00432300 f i HarrisCorners.obj
 0001:00031340       ?_Getcont@_Iterator_base12@std@@QBEPBU_Container_base12@2@XZ 00432340 f i HarrisCorners.obj
 0001:00031390       ?_Getpnext@_Iterator_base12@std@@QAEPAPAU12@XZ 00432390 f i HarrisCorners.obj
 0001:000313b0       ?_Incsize@?$list@U_CORNER@@V?$allocator@U_CORNER@@@std@@@std@@QAEXI@Z 004323b0 f i HarrisCorners.obj
 0001:00031420       ?_Incsize@?$list@U_DOT@@V?$allocator@U_DOT@@@std@@@std@@QAEXI@Z 00432420 f i HarrisCorners.obj
 0001:00031490       ?_Incsize@?$list@U_PAIR2@@V?$allocator@U_PAIR2@@@std@@@std@@QAEXI@Z 00432490 f i HarrisCorners.obj
 0001:00031500       ?_Incsize@?$list@U_PAIR@@V?$allocator@U_PAIR@@@std@@@std@@QAEXI@Z 00432500 f i HarrisCorners.obj
 0001:00031570       ?_Make_iter@?$list@U_DOT@@V?$allocator@U_DOT@@@std@@@std@@QBE?AV?$_List_iterator@V?$_List_val@U?$_List_simple_types@U_DOT@@@std@@@std@@@2@V?$_List_const_iterator@V?$_List_val@U?$_List_simple_types@U_DOT@@@std@@@std@@@2@@Z 00432570 f i HarrisCorners.obj
 0001:000315c0       ?_Make_iter@?$list@U_PAIR2@@V?$allocator@U_PAIR2@@@std@@@std@@QBE?AV?$_List_iterator@V?$_List_val@U?$_List_simple_types@U_PAIR2@@@std@@@std@@@2@V?$_List_const_iterator@V?$_List_val@U?$_List_simple_types@U_PAIR2@@@std@@@std@@@2@@Z 004325c0 f i HarrisCorners.obj
 0001:00031610       ?_Make_iter@?$list@U_PAIR@@V?$allocator@U_PAIR@@@std@@@std@@QBE?AV?$_List_iterator@V?$_List_val@U?$_List_simple_types@U_PAIR@@@std@@@std@@@2@V?$_List_const_iterator@V?$_List_val@U?$_List_simple_types@U_PAIR@@@std@@@std@@@2@@Z 00432610 f i HarrisCorners.obj
 0001:00031660       ?_Mynode@?$_List_unchecked_const_iterator@V?$_List_val@U?$_List_simple_types@U_CORNER@@@std@@@std@@U_Iterator_base0@2@@std@@QBEPAU?$_List_node@U_CORNER@@PAX@2@XZ 00432660 f i HarrisCorners.obj
 0001:00031680       ?_Mynode@?$_List_unchecked_const_iterator@V?$_List_val@U?$_List_simple_types@U_DOT@@@std@@@std@@U_Iterator_base0@2@@std@@QBEPAU?$_List_node@U_DOT@@PAX@2@XZ 00432680 f i HarrisCorners.obj
 0001:000316a0       ?_Mynode@?$_List_unchecked_const_iterator@V?$_List_val@U?$_List_simple_types@U_DOT@@@std@@@std@@U_Iterator_base12@2@@std@@QBEPAU?$_List_node@U_DOT@@PAX@2@XZ 004326a0 f i HarrisCorners.obj
 0001:000316c0       ?_Mynode@?$_List_unchecked_const_iterator@V?$_List_val@U?$_List_simple_types@U_PAIR2@@@std@@@std@@U_Iterator_base0@2@@std@@QBEPAU?$_List_node@U_PAIR2@@PAX@2@XZ 004326c0 f i HarrisCorners.obj
 0001:000316e0       ?_Mynode@?$_List_unchecked_const_iterator@V?$_List_val@U?$_List_simple_types@U_PAIR2@@@std@@@std@@U_Iterator_base12@2@@std@@QBEPAU?$_List_node@U_PAIR2@@PAX@2@XZ 004326e0 f i HarrisCorners.obj
 0001:00031700       ?_Mynode@?$_List_unchecked_const_iterator@V?$_List_val@U?$_List_simple_types@U_PAIR@@@std@@@std@@U_Iterator_base0@2@@std@@QBEPAU?$_List_node@U_PAIR@@PAX@2@XZ 00432700 f i HarrisCorners.obj
 0001:00031720       ?_Mynode@?$_List_unchecked_const_iterator@V?$_List_val@U?$_List_simple_types@U_PAIR@@@std@@@std@@U_Iterator_base12@2@@std@@QBEPAU?$_List_node@U_PAIR@@PAX@2@XZ 00432720 f i HarrisCorners.obj
 0001:00031740       ?_Myval@?$_List_val@U?$_List_simple_types@U_CORNER@@@std@@@std@@SAAAU_CORNER@@PAU?$_List_node@U_CORNER@@PAX@2@@Z 00432740 f i HarrisCorners.obj
 0001:00031750       ?_Myval@?$_List_val@U?$_List_simple_types@U_DOT@@@std@@@std@@SAAAU_DOT@@PAU?$_List_node@U_DOT@@PAX@2@@Z 00432750 f i HarrisCorners.obj
 0001:00031760       ?_Myval@?$_List_val@U?$_List_simple_types@U_PAIR2@@@std@@@std@@SAAAU_PAIR2@@PAU?$_List_node@U_PAIR2@@PAX@2@@Z 00432760 f i HarrisCorners.obj
 0001:00031770       ?_Myval@?$_List_val@U?$_List_simple_types@U_PAIR@@@std@@@std@@SAAAU_PAIR@@PAU?$_List_node@U_PAIR@@PAX@2@@Z 00432770 f i HarrisCorners.obj
 0001:00031780       ?_Nextnode@?$_List_val@U?$_List_simple_types@U_CORNER@@@std@@@std@@SAAAPAU?$_List_node@U_CORNER@@PAX@2@PAU32@@Z 00432780 f i HarrisCorners.obj
 0001:00031790       ?_Nextnode@?$_List_val@U?$_List_simple_types@U_DOT@@@std@@@std@@SAAAPAU?$_List_node@U_DOT@@PAX@2@PAU32@@Z 00432790 f i HarrisCorners.obj
 0001:000317a0       ?_Nextnode@?$_List_val@U?$_List_simple_types@U_PAIR2@@@std@@@std@@SAAAPAU?$_List_node@U_PAIR2@@PAX@2@PAU32@@Z 004327a0 f i HarrisCorners.obj
 0001:000317b0       ?_Nextnode@?$_List_val@U?$_List_simple_types@U_PAIR@@@std@@@std@@SAAAPAU?$_List_node@U_PAIR@@PAX@2@PAU32@@Z 004327b0 f i HarrisCorners.obj
 0001:000317c0       ?_Orphan_me@_Iterator_base12@std@@QAEXXZ 004327c0 f i HarrisCorners.obj
 0001:00031880       ?_Orphan_ptr@?$list@U_CORNER@@V?$allocator@U_CORNER@@@std@@@std@@QBEXAAV12@PAU?$_List_node@U_CORNER@@PAX@2@@Z 00432880 f i HarrisCorners.obj
 0001:00031a00       ?_Orphan_ptr@?$list@U_DOT@@V?$allocator@U_DOT@@@std@@@std@@QBEXAAV12@PAU?$_List_node@U_DOT@@PAX@2@@Z 00432a00 f i HarrisCorners.obj
 0001:00031b80       ?_Orphan_ptr@?$list@U_PAIR2@@V?$allocator@U_PAIR2@@@std@@@std@@QBEXAAV12@PAU?$_List_node@U_PAIR2@@PAX@2@@Z 00432b80 f i HarrisCorners.obj
 0001:00031d00       ?_Orphan_ptr@?$list@U_PAIR@@V?$allocator@U_PAIR@@@std@@@std@@QBEXAAV12@PAU?$_List_node@U_PAIR@@PAX@2@@Z 00432d00 f i HarrisCorners.obj
 0001:00031e80       ?_Prevnode@?$_List_val@U?$_List_simple_types@U_CORNER@@@std@@@std@@SAAAPAU?$_List_node@U_CORNER@@PAX@2@PAU32@@Z 00432e80 f i HarrisCorners.obj
 0001:00031e90       ?_Prevnode@?$_List_val@U?$_List_simple_types@U_DOT@@@std@@@std@@SAAAPAU?$_List_node@U_DOT@@PAX@2@PAU32@@Z 00432e90 f i HarrisCorners.obj
 0001:00031ea0       ?_Prevnode@?$_List_val@U?$_List_simple_types@U_PAIR2@@@std@@@std@@SAAAPAU?$_List_node@U_PAIR2@@PAX@2@PAU32@@Z 00432ea0 f i HarrisCorners.obj
 0001:00031eb0       ?_Prevnode@?$_List_val@U?$_List_simple_types@U_PAIR@@@std@@@std@@SAAAPAU?$_List_node@U_PAIR@@PAX@2@PAU32@@Z 00432eb0 f i HarrisCorners.obj
 0001:00031ec0       ?_Tidy@?$list@U_CORNER@@V?$allocator@U_CORNER@@@std@@@std@@QAEXXZ 00432ec0 f i HarrisCorners.obj
 0001:00031ef0       ?_Tidy@?$list@U_DOT@@V?$allocator@U_DOT@@@std@@@std@@QAEXXZ 00432ef0 f i HarrisCorners.obj
 0001:00031f20       ?_Tidy@?$list@U_PAIR2@@V?$allocator@U_PAIR2@@@std@@@std@@QAEXXZ 00432f20 f i HarrisCorners.obj
 0001:00031f50       ?_Tidy@?$list@U_PAIR@@V?$allocator@U_PAIR@@@std@@@std@@QAEXXZ 00432f50 f i HarrisCorners.obj
 0001:00031f80       ?_Unchecked_end@?$list@U_CORNER@@V?$allocator@U_CORNER@@@std@@@std@@QAE?AV?$_List_unchecked_iterator@V?$_List_val@U?$_List_simple_types@U_CORNER@@@std@@@std@@@2@XZ 00432f80 f i HarrisCorners.obj
 0001:00031fd0       ?_Unchecked_end@?$list@U_DOT@@V?$allocator@U_DOT@@@std@@@std@@QAE?AV?$_List_unchecked_iterator@V?$_List_val@U?$_List_simple_types@U_DOT@@@std@@@std@@@2@XZ 00432fd0 f i HarrisCorners.obj
 0001:00032020       ?_Unchecked_end@?$list@U_PAIR2@@V?$allocator@U_PAIR2@@@std@@@std@@QAE?AV?$_List_unchecked_iterator@V?$_List_val@U?$_List_simple_types@U_PAIR2@@@std@@@std@@@2@XZ 00433020 f i HarrisCorners.obj
 0001:00032070       ?_Unchecked_end@?$list@U_PAIR@@V?$allocator@U_PAIR@@@std@@@std@@QAE?AV?$_List_unchecked_iterator@V?$_List_val@U?$_List_simple_types@U_PAIR@@@std@@@std@@@2@XZ 00433070 f i HarrisCorners.obj
 0001:000320c0       ?_Unlinknode@?$list@U_DOT@@V?$allocator@U_DOT@@@std@@@std@@QAEPAU?$_List_node@U_DOT@@PAX@2@V?$_List_const_iterator@V?$_List_val@U?$_List_simple_types@U_DOT@@@std@@@std@@@2@@Z 004330c0 f i HarrisCorners.obj
 0001:00032240       ?_Unlinknode@?$list@U_PAIR2@@V?$allocator@U_PAIR2@@@std@@@std@@QAEPAU?$_List_node@U_PAIR2@@PAX@2@V?$_List_const_iterator@V?$_List_val@U?$_List_simple_types@U_PAIR2@@@std@@@std@@@2@@Z 00433240 f i HarrisCorners.obj
 0001:000323c0       ?_Unlinknode@?$list@U_PAIR@@V?$allocator@U_PAIR@@@std@@@std@@QAEPAU?$_List_node@U_PAIR@@PAX@2@V?$_List_const_iterator@V?$_List_val@U?$_List_simple_types@U_PAIR@@@std@@@std@@@2@@Z 004333c0 f i HarrisCorners.obj
 0001:00032540       ?abs@@YAMM@Z               00433540 f i HarrisCorners.obj
 0001:00032570       ?allocate@?$_Wrap_alloc@V?$allocator@U?$_List_node@U_CORNER@@PAX@std@@@std@@@std@@QAEPAU?$_List_node@U_CORNER@@PAX@2@I@Z 00433570 f i HarrisCorners.obj
 0001:000325b0       ?allocate@?$_Wrap_alloc@V?$allocator@U?$_List_node@U_DOT@@PAX@std@@@std@@@std@@QAEPAU?$_List_node@U_DOT@@PAX@2@I@Z 004335b0 f i HarrisCorners.obj
 0001:000325f0       ?allocate@?$_Wrap_alloc@V?$allocator@U?$_List_node@U_PAIR2@@PAX@std@@@std@@@std@@QAEPAU?$_List_node@U_PAIR2@@PAX@2@I@Z 004335f0 f i HarrisCorners.obj
 0001:00032630       ?allocate@?$_Wrap_alloc@V?$allocator@U?$_List_node@U_PAIR@@PAX@std@@@std@@@std@@QAEPAU?$_List_node@U_PAIR@@PAX@2@I@Z 00433630 f i HarrisCorners.obj
 0001:00032670       ?allocate@?$_Wrap_alloc@V?$allocator@U_Container_proxy@std@@@std@@@std@@QAEPAU_Container_proxy@2@I@Z 00433670 f i HarrisCorners.obj
 0001:000326b0       ?allocate@?$allocator@U?$_List_node@U_CORNER@@PAX@std@@@std@@QAEPAU?$_List_node@U_CORNER@@PAX@2@I@Z 004336b0 f i HarrisCorners.obj
 0001:000326f0       ?allocate@?$allocator@U?$_List_node@U_DOT@@PAX@std@@@std@@QAEPAU?$_List_node@U_DOT@@PAX@2@I@Z 004336f0 f i HarrisCorners.obj
 0001:00032730       ?allocate@?$allocator@U?$_List_node@U_PAIR2@@PAX@std@@@std@@QAEPAU?$_List_node@U_PAIR2@@PAX@2@I@Z 00433730 f i HarrisCorners.obj
 0001:00032770       ?allocate@?$allocator@U?$_List_node@U_PAIR@@PAX@std@@@std@@QAEPAU?$_List_node@U_PAIR@@PAX@2@I@Z 00433770 f i HarrisCorners.obj
 0001:000327b0       ?allocate@?$allocator@U_Container_proxy@std@@@std@@QAEPAU_Container_proxy@2@I@Z 004337b0 f i HarrisCorners.obj
 0001:000327f0       ?atan@@YAMM@Z              004337f0 f i HarrisCorners.obj
 0001:00032820       ?begin@?$list@U_CORNER@@V?$allocator@U_CORNER@@@std@@@std@@QAE?AV?$_List_iterator@V?$_List_val@U?$_List_simple_types@U_CORNER@@@std@@@std@@@2@XZ 00433820 f i HarrisCorners.obj
 0001:00032870       ?begin@?$list@U_DOT@@V?$allocator@U_DOT@@@std@@@std@@QAE?AV?$_List_iterator@V?$_List_val@U?$_List_simple_types@U_DOT@@@std@@@std@@@2@XZ 00433870 f i HarrisCorners.obj
 0001:000328c0       ?begin@?$list@U_PAIR2@@V?$allocator@U_PAIR2@@@std@@@std@@QAE?AV?$_List_iterator@V?$_List_val@U?$_List_simple_types@U_PAIR2@@@std@@@std@@@2@XZ 004338c0 f i HarrisCorners.obj
 0001:00032910       ?begin@?$list@U_PAIR@@V?$allocator@U_PAIR@@@std@@@std@@QAE?AV?$_List_iterator@V?$_List_val@U?$_List_simple_types@U_PAIR@@@std@@@std@@@2@XZ 00433910 f i HarrisCorners.obj
 0001:00032960       ?clear@?$list@U_CORNER@@V?$allocator@U_CORNER@@@std@@@std@@QAEXXZ 00433960 f i HarrisCorners.obj
 0001:00032a50       ?clear@?$list@U_DOT@@V?$allocator@U_DOT@@@std@@@std@@QAEXXZ 00433a50 f i HarrisCorners.obj
 0001:00032b40       ?clear@?$list@U_PAIR2@@V?$allocator@U_PAIR2@@@std@@@std@@QAEXXZ 00433b40 f i HarrisCorners.obj
 0001:00032c30       ?clear@?$list@U_PAIR@@V?$allocator@U_PAIR@@@std@@@std@@QAEXXZ 00433c30 f i HarrisCorners.obj
 0001:00032d20       ?deallocate@?$_Wrap_alloc@V?$allocator@U?$_List_node@U_CORNER@@PAX@std@@@std@@@std@@QAEXPAU?$_List_node@U_CORNER@@PAX@2@I@Z 00433d20 f i HarrisCorners.obj
 0001:00032d60       ?deallocate@?$_Wrap_alloc@V?$allocator@U?$_List_node@U_DOT@@PAX@std@@@std@@@std@@QAEXPAU?$_List_node@U_DOT@@PAX@2@I@Z 00433d60 f i HarrisCorners.obj
 0001:00032da0       ?deallocate@?$_Wrap_alloc@V?$allocator@U?$_List_node@U_PAIR2@@PAX@std@@@std@@@std@@QAEXPAU?$_List_node@U_PAIR2@@PAX@2@I@Z 00433da0 f i HarrisCorners.obj
 0001:00032de0       ?deallocate@?$_Wrap_alloc@V?$allocator@U?$_List_node@U_PAIR@@PAX@std@@@std@@@std@@QAEXPAU?$_List_node@U_PAIR@@PAX@2@I@Z 00433de0 f i HarrisCorners.obj
 0001:00032e20       ?deallocate@?$_Wrap_alloc@V?$allocator@U_Container_proxy@std@@@std@@@std@@QAEXPAU_Container_proxy@2@I@Z 00433e20 f i HarrisCorners.obj
 0001:00032e60       ?deallocate@?$allocator@U?$_List_node@U_CORNER@@PAX@std@@@std@@QAEXPAU?$_List_node@U_CORNER@@PAX@2@I@Z 00433e60 f i HarrisCorners.obj
 0001:00032ea0       ?deallocate@?$allocator@U?$_List_node@U_DOT@@PAX@std@@@std@@QAEXPAU?$_List_node@U_DOT@@PAX@2@I@Z 00433ea0 f i HarrisCorners.obj
 0001:00032ee0       ?deallocate@?$allocator@U?$_List_node@U_PAIR2@@PAX@std@@@std@@QAEXPAU?$_List_node@U_PAIR2@@PAX@2@I@Z 00433ee0 f i HarrisCorners.obj
 0001:00032f20       ?deallocate@?$allocator@U?$_List_node@U_PAIR@@PAX@std@@@std@@QAEXPAU?$_List_node@U_PAIR@@PAX@2@I@Z 00433f20 f i HarrisCorners.obj
 0001:00032f60       ?deallocate@?$allocator@U_Container_proxy@std@@@std@@QAEXPAU_Container_proxy@2@I@Z 00433f60 f i HarrisCorners.obj
 0001:00032fa0       ?end@?$list@U_CORNER@@V?$allocator@U_CORNER@@@std@@@std@@QAE?AV?$_List_iterator@V?$_List_val@U?$_List_simple_types@U_CORNER@@@std@@@std@@@2@XZ 00433fa0 f i HarrisCorners.obj
 0001:00032ff0       ?end@?$list@U_DOT@@V?$allocator@U_DOT@@@std@@@std@@QAE?AV?$_List_iterator@V?$_List_val@U?$_List_simple_types@U_DOT@@@std@@@std@@@2@XZ 00433ff0 f i HarrisCorners.obj
 0001:00033040       ?end@?$list@U_PAIR2@@V?$allocator@U_PAIR2@@@std@@@std@@QAE?AV?$_List_iterator@V?$_List_val@U?$_List_simple_types@U_PAIR2@@@std@@@std@@@2@XZ 00434040 f i HarrisCorners.obj
 0001:00033090       ?end@?$list@U_PAIR@@V?$allocator@U_PAIR@@@std@@@std@@QAE?AV?$_List_iterator@V?$_List_val@U?$_List_simple_types@U_PAIR@@@std@@@std@@@2@XZ 00434090 f i HarrisCorners.obj
 0001:000330e0       ?erase@?$list@U_DOT@@V?$allocator@U_DOT@@@std@@@std@@QAE?AV?$_List_iterator@V?$_List_val@U?$_List_simple_types@U_DOT@@@std@@@std@@@2@V?$_List_const_iterator@V?$_List_val@U?$_List_simple_types@U_DOT@@@std@@@std@@@2@@Z 004340e0 f i HarrisCorners.obj
 0001:00033200       ?erase@?$list@U_PAIR2@@V?$allocator@U_PAIR2@@@std@@@std@@QAE?AV?$_List_iterator@V?$_List_val@U?$_List_simple_types@U_PAIR2@@@std@@@std@@@2@V?$_List_const_iterator@V?$_List_val@U?$_List_simple_types@U_PAIR2@@@std@@@std@@@2@@Z 00434200 f i HarrisCorners.obj
 0001:00033320       ?erase@?$list@U_PAIR@@V?$allocator@U_PAIR@@@std@@@std@@QAE?AV?$_List_iterator@V?$_List_val@U?$_List_simple_types@U_PAIR@@@std@@@std@@@2@V?$_List_const_iterator@V?$_List_val@U?$_List_simple_types@U_PAIR@@@std@@@std@@@2@@Z 00434320 f i HarrisCorners.obj
 0001:00033440       ?exp@@YAMM@Z               00434440 f i HarrisCorners.obj
 0001:00033470       ?fabs@@YAMM@Z              00434470 f i HarrisCorners.obj
 0001:000334a0       ?log@@YAMM@Z               004344a0 f i HarrisCorners.obj
 0001:000334d0       ?max_size@?$_Wrap_alloc@V?$allocator@U?$_List_node@U_CORNER@@PAX@std@@@std@@@std@@QBEIXZ 004344d0 f i HarrisCorners.obj
 0001:00033510       ?max_size@?$_Wrap_alloc@V?$allocator@U?$_List_node@U_DOT@@PAX@std@@@std@@@std@@QBEIXZ 00434510 f i HarrisCorners.obj
 0001:00033550       ?max_size@?$_Wrap_alloc@V?$allocator@U?$_List_node@U_PAIR2@@PAX@std@@@std@@@std@@QBEIXZ 00434550 f i HarrisCorners.obj
 0001:00033590       ?max_size@?$_Wrap_alloc@V?$allocator@U?$_List_node@U_PAIR@@PAX@std@@@std@@@std@@QBEIXZ 00434590 f i HarrisCorners.obj
 0001:000335d0       ?max_size@?$allocator@U?$_List_node@U_CORNER@@PAX@std@@@std@@QBEIXZ 004345d0 f i HarrisCorners.obj
 0001:000335f0       ?max_size@?$allocator@U?$_List_node@U_DOT@@PAX@std@@@std@@QBEIXZ 004345f0 f i HarrisCorners.obj
 0001:00033610       ?max_size@?$allocator@U?$_List_node@U_PAIR2@@PAX@std@@@std@@QBEIXZ 00434610 f i HarrisCorners.obj
 0001:00033630       ?max_size@?$allocator@U?$_List_node@U_PAIR@@PAX@std@@@std@@QBEIXZ 00434630 f i HarrisCorners.obj
 0001:00033650       ?max_size@?$allocator_traits@V?$allocator@U?$_List_node@U_CORNER@@PAX@std@@@std@@@std@@SAIABV?$allocator@U?$_List_node@U_CORNER@@PAX@std@@@2@@Z 00434650 f i HarrisCorners.obj
 0001:00033670       ?max_size@?$allocator_traits@V?$allocator@U?$_List_node@U_DOT@@PAX@std@@@std@@@std@@SAIABV?$allocator@U?$_List_node@U_DOT@@PAX@std@@@2@@Z 00434670 f i HarrisCorners.obj
 0001:00033690       ?max_size@?$allocator_traits@V?$allocator@U?$_List_node@U_PAIR2@@PAX@std@@@std@@@std@@SAIABV?$allocator@U?$_List_node@U_PAIR2@@PAX@std@@@2@@Z 00434690 f i HarrisCorners.obj
 0001:000336b0       ?max_size@?$allocator_traits@V?$allocator@U?$_List_node@U_PAIR@@PAX@std@@@std@@@std@@SAIABV?$allocator@U?$_List_node@U_PAIR@@PAX@std@@@2@@Z 004346b0 f i HarrisCorners.obj
 0001:000336d0       ?max_size@?$list@U_CORNER@@V?$allocator@U_CORNER@@@std@@@std@@QBEIXZ 004346d0 f i HarrisCorners.obj
 0001:00033720       ?max_size@?$list@U_DOT@@V?$allocator@U_DOT@@@std@@@std@@QBEIXZ 00434720 f i HarrisCorners.obj
 0001:00033770       ?max_size@?$list@U_PAIR2@@V?$allocator@U_PAIR2@@@std@@@std@@QBEIXZ 00434770 f i HarrisCorners.obj
 0001:000337c0       ?max_size@?$list@U_PAIR@@V?$allocator@U_PAIR@@@std@@@std@@QBEIXZ 004347c0 f i HarrisCorners.obj
 0001:00033810       ?pointer_to@?$pointer_traits@PAU_CORNER@@@std@@SAPAU_CORNER@@AAU3@@Z 00434810 f i HarrisCorners.obj
 0001:00033830       ?pointer_to@?$pointer_traits@PAU_DOT@@@std@@SAPAU_DOT@@AAU3@@Z 00434830 f i HarrisCorners.obj
 0001:00033850       ?pointer_to@?$pointer_traits@PAU_PAIR2@@@std@@SAPAU_PAIR2@@AAU3@@Z 00434850 f i HarrisCorners.obj
 0001:00033870       ?pointer_to@?$pointer_traits@PAU_PAIR@@@std@@SAPAU_PAIR@@AAU3@@Z 00434870 f i HarrisCorners.obj
 0001:00033890       ?push_back@?$list@U_CORNER@@V?$allocator@U_CORNER@@@std@@@std@@QAEXABU_CORNER@@@Z 00434890 f i HarrisCorners.obj
 0001:00033900       ?push_back@?$list@U_DOT@@V?$allocator@U_DOT@@@std@@@std@@QAEXABU_DOT@@@Z 00434900 f i HarrisCorners.obj
 0001:00033970       ?push_back@?$list@U_PAIR2@@V?$allocator@U_PAIR2@@@std@@@std@@QAEXABU_PAIR2@@@Z 00434970 f i HarrisCorners.obj
 0001:000339e0       ?push_back@?$list@U_PAIR@@V?$allocator@U_PAIR@@@std@@@std@@QAEXABU_PAIR@@@Z 004349e0 f i HarrisCorners.obj
 0001:00033a50       ?size@?$list@U_CORNER@@V?$allocator@U_CORNER@@@std@@@std@@QBEIXZ 00434a50 f i HarrisCorners.obj
 0001:00033a70       ?size@?$list@U_PAIR2@@V?$allocator@U_PAIR2@@@std@@@std@@QBEIXZ 00434a70 f i HarrisCorners.obj
 0001:00033a90       ?size@?$list@U_PAIR@@V?$allocator@U_PAIR@@@std@@@std@@QBEIXZ 00434a90 f i HarrisCorners.obj
 0001:00033ab0       ?sqrt@@YAMM@Z              00434ab0 f i HarrisCorners.obj
 0001:00033ae0       _atanf                     00434ae0 f i HarrisCorners.obj
 0001:00033b30       _expf                      00434b30 f i HarrisCorners.obj
 0001:00033b80       _fabsf                     00434b80 f i HarrisCorners.obj
 0001:00033bd0       _logf                      00434bd0 f i HarrisCorners.obj
 0001:00033c20       _sqrtf                     00434c20 f i HarrisCorners.obj
 0001:00033c70       ??0CImageMosaicApp@@QAE@XZ 00434c70 f   ImageMosaic.obj
 0001:00033cb0       ?InitInstance@CImageMosaicApp@@UAEHXZ 00434cb0 f   ImageMosaic.obj
 0001:00033df0       ?GetThisMessageMap@CImageMosaicApp@@KGPBUAFX_MSGMAP@@XZ 00434df0 f   ImageMosaic.obj
 0001:00033e00       ?GetMessageMap@CImageMosaicApp@@MBEPBUAFX_MSGMAP@@XZ 00434e00 f   ImageMosaic.obj
 0001:00033e90       ??1CImageMosaicApp@@UAE@XZ 00434e90 f i ImageMosaic.obj
 0001:00033ec0       ??_ECImageMosaicApp@@UAEPAXI@Z 00434ec0 f i ImageMosaic.obj
 0001:00033ec0       ??_GCImageMosaicApp@@UAEPAXI@Z 00434ec0 f i ImageMosaic.obj
 0001:00033f10       ?GetApplicationRecoveryParameter@CWinApp@@UAEPAXXZ 00434f10 f i ImageMosaic.obj
 0001:00033f30       ?GetApplicationRecoveryPingInterval@CWinApp@@UAEKXZ 00434f30 f i ImageMosaic.obj
 0001:00033f50       ?GetApplicationRestartFlags@CWinApp@@UAEKXZ 00434f50 f i ImageMosaic.obj
 0001:00033f70       ?ReopenPreviousFilesAtRestart@CWinApp@@UBEHXZ 00434f70 f i ImageMosaic.obj
 0001:00033fa0       ?RestoreAutosavedFilesAtRestart@CWinApp@@UBEHXZ 00434fa0 f i ImageMosaic.obj
 0001:00033fd0       ?SupportsApplicationRecovery@CWinApp@@UBEHXZ 00434fd0 f i ImageMosaic.obj
 0001:00034000       ?SupportsAutosaveAtInterval@CWinApp@@UBEHXZ 00435000 f i ImageMosaic.obj
 0001:00034030       ?SupportsAutosaveAtRestart@CWinApp@@UBEHXZ 00435030 f i ImageMosaic.obj
 0001:00034060       ?SupportsRestartManager@CWinApp@@UBEHXZ 00435060 f i ImageMosaic.obj
 0001:00034090       ??0CImageMosaicDlg@@QAE@PAVCWnd@@@Z 00435090 f   ImageMosaicDlg.obj
 0001:00034170       ??1CImageMosaicDlg@@UAE@XZ 00435170 f   ImageMosaicDlg.obj
 0001:00034200       ?DoDataExchange@CImageMosaicDlg@@MAEXPAVCDataExchange@@@Z 00435200 f   ImageMosaicDlg.obj
 0001:00034230       ?OnInitDialog@CImageMosaicDlg@@MAEHXZ 00435230 f   ImageMosaicDlg.obj
 0001:000343b0       ?OnSysCommand@CImageMosaicDlg@@IAEXIJ@Z 004353b0 f   ImageMosaicDlg.obj
 0001:00034490       ?OnPaint@CImageMosaicDlg@@IAEXXZ 00435490 f   ImageMosaicDlg.obj
 0001:00034620       ?OnQueryDragIcon@CImageMosaicDlg@@IAEPAUHICON__@@XZ 00435620 f   ImageMosaicDlg.obj
 0001:00034640       ?GetThisMessageMap@CImageMosaicDlg@@KGPBUAFX_MSGMAP@@XZ 00435640 f   ImageMosaicDlg.obj
 0001:00034650       ?GetMessageMap@CImageMosaicDlg@@MBEPBUAFX_MSGMAP@@XZ 00435650 f   ImageMosaicDlg.obj
 0001:00034680       ?Loadimage@CImageMosaicDlg@@QAEXXZ 00435680 f   ImageMosaicDlg.obj
 0001:000348b0       ?StartImageMosaic@CImageMosaicDlg@@QAEXXZ 004358b0 f   ImageMosaicDlg.obj
 0001:00035850       ?Imagemosaic@CImageMosaicDlg@@QAE_NAAVCImage@ATL@@00@Z 00436850 f   ImageMosaicDlg.obj
 0001:00035c20       ?wvltTransTwiceProcess@CImageMosaicDlg@@QAE_NAAVCImage@ATL@@0@Z 00436c20 f   ImageMosaicDlg.obj
 0001:000361c0       ?wvltTransOnceProcess@CImageMosaicDlg@@QAE_NAAVCImage@ATL@@0@Z 004371c0 f   ImageMosaicDlg.obj
 0001:000366e0       ?originImageProcess@CImageMosaicDlg@@QAE_NAAVCImage@ATL@@00@Z 004376e0 f   ImageMosaicDlg.obj
 0001:00036960       ?Cancel@CImageMosaicDlg@@QAEXXZ 00437960 f   ImageMosaicDlg.obj
 0001:000369a0       ?imageCopy@CImageMosaicDlg@@QAEXAAVCImage@ATL@@0@Z 004379a0 f   ImageMosaicDlg.obj
 0001:00036b10       ?imageGroupMosaic@CImageMosaicDlg@@QAE_NAAV?$list@V?$CStringT@_WV?$StrTraitMFC_DLL@_WV?$ChTraitsCRT@_W@ATL@@@@@ATL@@V?$allocator@V?$CStringT@_WV?$StrTraitMFC_DLL@_WV?$ChTraitsCRT@_W@ATL@@@@@ATL@@@std@@@std@@AAVCImage@ATL@@@Z 00437b10 f   ImageMosaicDlg.obj
 0001:00037180       ?getYUV@CImageMosaicDlg@@QAEXAAVCImage@ATL@@AAPAM@Z 00438180 f   ImageMosaicDlg.obj
 0001:00037310       ??0CAboutDlg@@QAE@XZ       00438310 f   ImageMosaicDlg.obj
 0001:00037350       ?DoDataExchange@CAboutDlg@@MAEXPAVCDataExchange@@@Z 00438350 f   ImageMosaicDlg.obj
 0001:00037380       ?GetThisMessageMap@CAboutDlg@@KGPBUAFX_MSGMAP@@XZ 00438380 f   ImageMosaicDlg.obj
 0001:00037390       ?GetMessageMap@CAboutDlg@@MBEPBUAFX_MSGMAP@@XZ 00438390 f   ImageMosaicDlg.obj
 0001:00038080       ??$AtlAlignUp@I@ATL@@YGIIK@Z 00439080 f i ImageMosaicDlg.obj
 0001:000380b0       ??$AtlConvAllocMemory@_W@ATL@@YAXPAPA_WHPA_WH@Z 004390b0 f i ImageMosaicDlg.obj
 0001:00038350       ??$AtlConvFreeMemory@_W@ATL@@YAXPA_W0H@Z 00439350 f i ImageMosaicDlg.obj
 0001:000383b0       ??$_Allocate@U?$_List_node@V?$CStringT@_WV?$StrTraitMFC_DLL@_WV?$ChTraitsCRT@_W@ATL@@@@@ATL@@PAX@std@@@std@@YAPAU?$_List_node@V?$CStringT@_WV?$StrTraitMFC_DLL@_WV?$ChTraitsCRT@_W@ATL@@@@@ATL@@PAX@0@IPAU10@@Z 004393b0 f i ImageMosaicDlg.obj
 0001:00038430       ??$_Buynode@ABV?$CStringT@_WV?$StrTraitMFC_DLL@_WV?$ChTraitsCRT@_W@ATL@@@@@ATL@@@?$_List_buy@V?$CStringT@_WV?$StrTraitMFC_DLL@_WV?$ChTraitsCRT@_W@ATL@@@@@ATL@@V?$allocator@V?$CStringT@_WV?$StrTraitMFC_DLL@_WV?$ChTraitsCRT@_W@ATL@@@@@ATL@@@std@@@std@@QAEPAU?$_List_node@V?$CStringT@_WV?$StrTraitMFC_DLL@_WV?$ChTraitsCRT@_W@ATL@@@@@ATL@@PAX@1@PAU21@0ABV?$CStringT@_WV?$StrTraitMFC_DLL@_WV?$ChTraitsCRT@_W@ATL@@@@@ATL@@@Z 00439430 f i ImageMosaicDlg.obj
 0001:00038580       ??$_Insert@ABV?$CStringT@_WV?$StrTraitMFC_DLL@_WV?$ChTraitsCRT@_W@ATL@@@@@ATL@@@?$list@V?$CStringT@_WV?$StrTraitMFC_DLL@_WV?$ChTraitsCRT@_W@ATL@@@@@ATL@@V?$allocator@V?$CStringT@_WV?$StrTraitMFC_DLL@_WV?$ChTraitsCRT@_W@ATL@@@@@ATL@@@std@@@std@@QAEXV?$_List_unchecked_const_iterator@V?$_List_val@U?$_List_simple_types@V?$CStringT@_WV?$StrTraitMFC_DLL@_WV?$ChTraitsCRT@_W@ATL@@@@@ATL@@@std@@@std@@U_Iterator_base0@2@@1@ABV?$CStringT@_WV?$StrTraitMFC_DLL@_WV?$ChTraitsCRT@_W@ATL@@@@@ATL@@@Z 00439580 f i ImageMosaicDlg.obj
 0001:00038650       ??$addressof@PAU?$_List_node@V?$CStringT@_WV?$StrTraitMFC_DLL@_WV?$ChTraitsCRT@_W@ATL@@@@@ATL@@PAX@std@@@std@@YAPAPAU?$_List_node@V?$CStringT@_WV?$StrTraitMFC_DLL@_WV?$ChTraitsCRT@_W@ATL@@@@@ATL@@PAX@0@AAPAU10@@Z 00439650 f i ImageMosaicDlg.obj
 0001:00038660       ??$addressof@V?$CStringT@_WV?$StrTraitMFC_DLL@_WV?$ChTraitsCRT@_W@ATL@@@@@ATL@@@std@@YAPAV?$CStringT@_WV?$StrTraitMFC_DLL@_WV?$ChTraitsCRT@_W@ATL@@@@@ATL@@AAV12@@Z 00439660 f i ImageMosaicDlg.obj
 0001:00038670       ??$construct@PAU?$_List_node@V?$CStringT@_WV?$StrTraitMFC_DLL@_WV?$ChTraitsCRT@_W@ATL@@@@@ATL@@PAX@std@@AAPAU12@@?$_Wrap_alloc@V?$allocator@U?$_List_node@V?$CStringT@_WV?$StrTraitMFC_DLL@_WV?$ChTraitsCRT@_W@ATL@@@@@ATL@@PAX@std@@@std@@@std@@QAEXPAPAU?$_List_node@V?$CStringT@_WV?$StrTraitMFC_DLL@_WV?$ChTraitsCRT@_W@ATL@@@@@ATL@@PAX@1@AAPAU21@@Z 00439670 f i ImageMosaicDlg.obj
 0001:000386c0       ??$construct@PAU?$_List_node@V?$CStringT@_WV?$StrTraitMFC_DLL@_WV?$ChTraitsCRT@_W@ATL@@@@@ATL@@PAX@std@@AAPAU12@@?$allocator@U?$_List_node@V?$CStringT@_WV?$StrTraitMFC_DLL@_WV?$ChTraitsCRT@_W@ATL@@@@@ATL@@PAX@std@@@std@@QAEXPAPAU?$_List_node@V?$CStringT@_WV?$StrTraitMFC_DLL@_WV?$ChTraitsCRT@_W@ATL@@@@@ATL@@PAX@1@AAPAU21@@Z 004396c0 f i ImageMosaicDlg.obj
 0001:00038790       ??$construct@PAU?$_List_node@V?$CStringT@_WV?$StrTraitMFC_DLL@_WV?$ChTraitsCRT@_W@ATL@@@@@ATL@@PAX@std@@AAPAU12@@?$allocator_traits@V?$allocator@U?$_List_node@V?$CStringT@_WV?$StrTraitMFC_DLL@_WV?$ChTraitsCRT@_W@ATL@@@@@ATL@@PAX@std@@@std@@@std@@SAXAAV?$allocator@U?$_List_node@V?$CStringT@_WV?$StrTraitMFC_DLL@_WV?$ChTraitsCRT@_W@ATL@@@@@ATL@@PAX@std@@@1@PAPAU?$_List_node@V?$CStringT@_WV?$StrTraitMFC_DLL@_WV?$ChTraitsCRT@_W@ATL@@@@@ATL@@PAX@1@AAPAU31@@Z 00439790 f i ImageMosaicDlg.obj
 0001:000387c0       ??$construct@V?$CStringT@_WV?$StrTraitMFC_DLL@_WV?$ChTraitsCRT@_W@ATL@@@@@ATL@@ABV12@@?$_Wrap_alloc@V?$allocator@U?$_List_node@V?$CStringT@_WV?$StrTraitMFC_DLL@_WV?$ChTraitsCRT@_W@ATL@@@@@ATL@@PAX@std@@@std@@@std@@QAEXPAV?$CStringT@_WV?$StrTraitMFC_DLL@_WV?$ChTraitsCRT@_W@ATL@@@@@ATL@@ABV23@@Z 004397c0 f i ImageMosaicDlg.obj
 0001:00038810       ??$construct@V?$CStringT@_WV?$StrTraitMFC_DLL@_WV?$ChTraitsCRT@_W@ATL@@@@@ATL@@ABV12@@?$allocator@U?$_List_node@V?$CStringT@_WV?$StrTraitMFC_DLL@_WV?$ChTraitsCRT@_W@ATL@@@@@ATL@@PAX@std@@@std@@QAEXPAV?$CStringT@_WV?$StrTraitMFC_DLL@_WV?$ChTraitsCRT@_W@ATL@@@@@ATL@@ABV23@@Z 00439810 f i ImageMosaicDlg.obj
 0001:000388f0       ??$construct@V?$CStringT@_WV?$StrTraitMFC_DLL@_WV?$ChTraitsCRT@_W@ATL@@@@@ATL@@ABV12@@?$allocator_traits@V?$allocator@U?$_List_node@V?$CStringT@_WV?$StrTraitMFC_DLL@_WV?$ChTraitsCRT@_W@ATL@@@@@ATL@@PAX@std@@@std@@@std@@SAXAAV?$allocator@U?$_List_node@V?$CStringT@_WV?$StrTraitMFC_DLL@_WV?$ChTraitsCRT@_W@ATL@@@@@ATL@@PAX@std@@@1@PAV?$CStringT@_WV?$StrTraitMFC_DLL@_WV?$ChTraitsCRT@_W@ATL@@@@@ATL@@ABV34@@Z 004398f0 f i ImageMosaicDlg.obj
 0001:00038920       ??$destroy@PAU?$_List_node@V?$CStringT@_WV?$StrTraitMFC_DLL@_WV?$ChTraitsCRT@_W@ATL@@@@@ATL@@PAX@std@@@?$_Wrap_alloc@V?$allocator@U?$_List_node@V?$CStringT@_WV?$StrTraitMFC_DLL@_WV?$ChTraitsCRT@_W@ATL@@@@@ATL@@PAX@std@@@std@@@std@@QAEXPAPAU?$_List_node@V?$CStringT@_WV?$StrTraitMFC_DLL@_WV?$ChTraitsCRT@_W@ATL@@@@@ATL@@PAX@1@@Z 00439920 f i ImageMosaicDlg.obj
 0001:00038960       ??$destroy@PAU?$_List_node@V?$CStringT@_WV?$StrTraitMFC_DLL@_WV?$ChTraitsCRT@_W@ATL@@@@@ATL@@PAX@std@@@?$allocator@U?$_List_node@V?$CStringT@_WV?$StrTraitMFC_DLL@_WV?$ChTraitsCRT@_W@ATL@@@@@ATL@@PAX@std@@@std@@QAEXPAPAU?$_List_node@V?$CStringT@_WV?$StrTraitMFC_DLL@_WV?$ChTraitsCRT@_W@ATL@@@@@ATL@@PAX@1@@Z 00439960 f i ImageMosaicDlg.obj
 0001:00038980       ??$destroy@PAU?$_List_node@V?$CStringT@_WV?$StrTraitMFC_DLL@_WV?$ChTraitsCRT@_W@ATL@@@@@ATL@@PAX@std@@@?$allocator_traits@V?$allocator@U?$_List_node@V?$CStringT@_WV?$StrTraitMFC_DLL@_WV?$ChTraitsCRT@_W@ATL@@@@@ATL@@PAX@std@@@std@@@std@@SAXAAV?$allocator@U?$_List_node@V?$CStringT@_WV?$StrTraitMFC_DLL@_WV?$ChTraitsCRT@_W@ATL@@@@@ATL@@PAX@std@@@1@PAPAU?$_List_node@V?$CStringT@_WV?$StrTraitMFC_DLL@_WV?$ChTraitsCRT@_W@ATL@@@@@ATL@@PAX@1@@Z 00439980 f i ImageMosaicDlg.obj
 0001:000389a0       ??$destroy@V?$CStringT@_WV?$StrTraitMFC_DLL@_WV?$ChTraitsCRT@_W@ATL@@@@@ATL@@@?$_Wrap_alloc@V?$allocator@U?$_List_node@V?$CStringT@_WV?$StrTraitMFC_DLL@_WV?$ChTraitsCRT@_W@ATL@@@@@ATL@@PAX@std@@@std@@@std@@QAEXPAV?$CStringT@_WV?$StrTraitMFC_DLL@_WV?$ChTraitsCRT@_W@ATL@@@@@ATL@@@Z 004399a0 f i ImageMosaicDlg.obj
 0001:000389e0       ??$destroy@V?$CStringT@_WV?$StrTraitMFC_DLL@_WV?$ChTraitsCRT@_W@ATL@@@@@ATL@@@?$allocator@U?$_List_node@V?$CStringT@_WV?$StrTraitMFC_DLL@_WV?$ChTraitsCRT@_W@ATL@@@@@ATL@@PAX@std@@@std@@QAEXPAV?$CStringT@_WV?$StrTraitMFC_DLL@_WV?$ChTraitsCRT@_W@ATL@@@@@ATL@@@Z 004399e0 f i ImageMosaicDlg.obj
 0001:00038a20       ??$destroy@V?$CStringT@_WV?$StrTraitMFC_DLL@_WV?$ChTraitsCRT@_W@ATL@@@@@ATL@@@?$allocator_traits@V?$allocator@U?$_List_node@V?$CStringT@_WV?$StrTraitMFC_DLL@_WV?$ChTraitsCRT@_W@ATL@@@@@ATL@@PAX@std@@@std@@@std@@SAXAAV?$allocator@U?$_List_node@V?$CStringT@_WV?$StrTraitMFC_DLL@_WV?$ChTraitsCRT@_W@ATL@@@@@ATL@@PAX@std@@@1@PAV?$CStringT@_WV?$StrTraitMFC_DLL@_WV?$ChTraitsCRT@_W@ATL@@@@@ATL@@@Z 00439a20 f i ImageMosaicDlg.obj
 0001:00038a40       ??$forward@AAPAU?$_List_node@V?$CStringT@_WV?$StrTraitMFC_DLL@_WV?$ChTraitsCRT@_W@ATL@@@@@ATL@@PAX@std@@@std@@YAAAPAU?$_List_node@V?$CStringT@_WV?$StrTraitMFC_DLL@_WV?$ChTraitsCRT@_W@ATL@@@@@ATL@@PAX@0@AAPAU10@@Z 00439a40 f i ImageMosaicDlg.obj
 0001:00038a50       ??$forward@ABV?$CStringT@_WV?$StrTraitMFC_DLL@_WV?$ChTraitsCRT@_W@ATL@@@@@ATL@@@std@@YAABV?$CStringT@_WV?$StrTraitMFC_DLL@_WV?$ChTraitsCRT@_W@ATL@@@@@ATL@@ABV12@@Z 00439a50 f i ImageMosaicDlg.obj
 0001:00038a60       ??0?$CW2WEX@$0IA@@ATL@@QAE@PB_W@Z 00439a60 f i ImageMosaicDlg.obj
 0001:00038ab0       ??0?$_Iterator012@Ubidirectional_iterator_tag@std@@V?$CStringT@_WV?$StrTraitMFC_DLL@_WV?$ChTraitsCRT@_W@ATL@@@@@ATL@@HPBV34@ABV34@U_Iterator_base12@2@@std@@QAE@ABU01@@Z 00439ab0 f i ImageMosaicDlg.obj
 0001:00038af0       ??0?$_Iterator012@Ubidirectional_iterator_tag@std@@V?$CStringT@_WV?$StrTraitMFC_DLL@_WV?$ChTraitsCRT@_W@ATL@@@@@ATL@@HPBV34@ABV34@U_Iterator_base12@2@@std@@QAE@XZ 00439af0 f i ImageMosaicDlg.obj
 0001:00038b20       ??0?$_List_alloc@$0A@U?$_List_base_types@V?$CStringT@_WV?$StrTraitMFC_DLL@_WV?$ChTraitsCRT@_W@ATL@@@@@ATL@@V?$allocator@V?$CStringT@_WV?$StrTraitMFC_DLL@_WV?$ChTraitsCRT@_W@ATL@@@@@ATL@@@std@@@std@@@std@@QAE@ABV?$allocator@V?$CStringT@_WV?$StrTraitMFC_DLL@_WV?$ChTraitsCRT@_W@ATL@@@@@ATL@@@1@@Z 00439b20 f i ImageMosaicDlg.obj
 0001:00038c10       ??0?$_List_buy@V?$CStringT@_WV?$StrTraitMFC_DLL@_WV?$ChTraitsCRT@_W@ATL@@@@@ATL@@V?$allocator@V?$CStringT@_WV?$StrTraitMFC_DLL@_WV?$ChTraitsCRT@_W@ATL@@@@@ATL@@@std@@@std@@QAE@ABV?$allocator@V?$CStringT@_WV?$StrTraitMFC_DLL@_WV?$ChTraitsCRT@_W@ATL@@@@@ATL@@@1@@Z 00439c10 f i ImageMosaicDlg.obj
 0001:00038c50       ??0?$_List_const_iterator@V?$_List_val@U?$_List_simple_types@V?$CStringT@_WV?$StrTraitMFC_DLL@_WV?$ChTraitsCRT@_W@ATL@@@@@ATL@@@std@@@std@@@std@@QAE@ABV01@@Z 00439c50 f i ImageMosaicDlg.obj
 0001:00038c90       ??0?$_List_const_iterator@V?$_List_val@U?$_List_simple_types@V?$CStringT@_WV?$StrTraitMFC_DLL@_WV?$ChTraitsCRT@_W@ATL@@@@@ATL@@@std@@@std@@@std@@QAE@PAU?$_List_node@V?$CStringT@_WV?$StrTraitMFC_DLL@_WV?$ChTraitsCRT@_W@ATL@@@@@ATL@@PAX@1@PBV?$_List_val@U?$_List_simple_types@V?$CStringT@_WV?$StrTraitMFC_DLL@_WV?$ChTraitsCRT@_W@ATL@@@@@ATL@@@std@@@1@@Z 00439c90 f i ImageMosaicDlg.obj
 0001:00038cd0       ??0?$_List_iterator@V?$_List_val@U?$_List_simple_types@V?$CStringT@_WV?$StrTraitMFC_DLL@_WV?$ChTraitsCRT@_W@ATL@@@@@ATL@@@std@@@std@@@std@@QAE@PAU?$_List_node@V?$CStringT@_WV?$StrTraitMFC_DLL@_WV?$ChTraitsCRT@_W@ATL@@@@@ATL@@PAX@1@PBV?$_List_val@U?$_List_simple_types@V?$CStringT@_WV?$StrTraitMFC_DLL@_WV?$ChTraitsCRT@_W@ATL@@@@@ATL@@@std@@@1@@Z 00439cd0 f i ImageMosaicDlg.obj
 0001:00038d10       ??0?$_List_unchecked_const_iterator@V?$_List_val@U?$_List_simple_types@V?$CStringT@_WV?$StrTraitMFC_DLL@_WV?$ChTraitsCRT@_W@ATL@@@@@ATL@@@std@@@std@@U_Iterator_base0@2@@std@@QAE@PAU?$_List_node@V?$CStringT@_WV?$StrTraitMFC_DLL@_WV?$ChTraitsCRT@_W@ATL@@@@@ATL@@PAX@1@PBV?$_List_val@U?$_List_simple_types@V?$CStringT@_WV?$StrTraitMFC_DLL@_WV?$ChTraitsCRT@_W@ATL@@@@@ATL@@@std@@@1@@Z 00439d10 f i ImageMosaicDlg.obj
 0001:00038d60       ??0?$_List_unchecked_const_iterator@V?$_List_val@U?$_List_simple_types@V?$CStringT@_WV?$StrTraitMFC_DLL@_WV?$ChTraitsCRT@_W@ATL@@@@@ATL@@@std@@@std@@U_Iterator_base12@2@@std@@QAE@ABV01@@Z 00439d60 f i ImageMosaicDlg.obj
 0001:00038db0       ??0?$_List_unchecked_const_iterator@V?$_List_val@U?$_List_simple_types@V?$CStringT@_WV?$StrTraitMFC_DLL@_WV?$ChTraitsCRT@_W@ATL@@@@@ATL@@@std@@@std@@U_Iterator_base12@2@@std@@QAE@PAU?$_List_node@V?$CStringT@_WV?$StrTraitMFC_DLL@_WV?$ChTraitsCRT@_W@ATL@@@@@ATL@@PAX@1@PBV?$_List_val@U?$_List_simple_types@V?$CStringT@_WV?$StrTraitMFC_DLL@_WV?$ChTraitsCRT@_W@ATL@@@@@ATL@@@std@@@1@@Z 00439db0 f i ImageMosaicDlg.obj
 0001:00038e50       ??0?$_List_unchecked_iterator@V?$_List_val@U?$_List_simple_types@V?$CStringT@_WV?$StrTraitMFC_DLL@_WV?$ChTraitsCRT@_W@ATL@@@@@ATL@@@std@@@std@@@std@@QAE@PAU?$_List_node@V?$CStringT@_WV?$StrTraitMFC_DLL@_WV?$ChTraitsCRT@_W@ATL@@@@@ATL@@PAX@1@PBV?$_List_val@U?$_List_simple_types@V?$CStringT@_WV?$StrTraitMFC_DLL@_WV?$ChTraitsCRT@_W@ATL@@@@@ATL@@@std@@@1@@Z 00439e50 f i ImageMosaicDlg.obj
 0001:00038e90       ??0?$_List_val@U?$_List_simple_types@V?$CStringT@_WV?$StrTraitMFC_DLL@_WV?$ChTraitsCRT@_W@ATL@@@@@ATL@@@std@@@std@@QAE@XZ 00439e90 f i ImageMosaicDlg.obj
 0001:00038ef0       ??0?$_Wrap_alloc@V?$allocator@U?$_List_node@V?$CStringT@_WV?$StrTraitMFC_DLL@_WV?$ChTraitsCRT@_W@ATL@@@@@ATL@@PAX@std@@@std@@@std@@QAE@XZ 00439ef0 f i ImageMosaicDlg.obj
 0001:00038f20       ??0?$allocator@U?$_List_node@V?$CStringT@_WV?$StrTraitMFC_DLL@_WV?$ChTraitsCRT@_W@ATL@@@@@ATL@@PAX@std@@@std@@QAE@XZ 00439f20 f i ImageMosaicDlg.obj
 0001:00038f40       ??0?$allocator@V?$CStringT@_WV?$StrTraitMFC_DLL@_WV?$ChTraitsCRT@_W@ATL@@@@@ATL@@@std@@QAE@XZ 00439f40 f i ImageMosaicDlg.obj
 0001:00038f60       ??0?$list@V?$CStringT@_WV?$StrTraitMFC_DLL@_WV?$ChTraitsCRT@_W@ATL@@@@@ATL@@V?$allocator@V?$CStringT@_WV?$StrTraitMFC_DLL@_WV?$ChTraitsCRT@_W@ATL@@@@@ATL@@@std@@@std@@QAE@XZ 00439f60 f i ImageMosaicDlg.obj
 0001:00038fb0       ??0Bitmap@Gdiplus@@QAE@PB_WH@Z 00439fb0 f i ImageMosaicDlg.obj
 0001:000390d0       ??0Graphics@Gdiplus@@QAE@PAVImage@1@@Z 0043a0d0 f i ImageMosaicDlg.obj
 0001:00039180       ??0Rect@Gdiplus@@QAE@HHHH@Z 0043a180 f i ImageMosaicDlg.obj
 0001:000391d0       ??1?$CW2WEX@$0IA@@ATL@@QAE@XZ 0043a1d0 f i ImageMosaicDlg.obj
 0001:00039220       ??1?$_Iterator012@Ubidirectional_iterator_tag@std@@V?$CStringT@_WV?$StrTraitMFC_DLL@_WV?$ChTraitsCRT@_W@ATL@@@@@ATL@@HPBV34@ABV34@U_Iterator_base12@2@@std@@QAE@XZ 0043a220 f i ImageMosaicDlg.obj
 0001:00039250       ??1?$_List_alloc@$0A@U?$_List_base_types@V?$CStringT@_WV?$StrTraitMFC_DLL@_WV?$ChTraitsCRT@_W@ATL@@@@@ATL@@V?$allocator@V?$CStringT@_WV?$StrTraitMFC_DLL@_WV?$ChTraitsCRT@_W@ATL@@@@@ATL@@@std@@@std@@@std@@QAE@XZ 0043a250 f i ImageMosaicDlg.obj
 0001:000392a0       ??1?$_List_buy@V?$CStringT@_WV?$StrTraitMFC_DLL@_WV?$ChTraitsCRT@_W@ATL@@@@@ATL@@V?$allocator@V?$CStringT@_WV?$StrTraitMFC_DLL@_WV?$ChTraitsCRT@_W@ATL@@@@@ATL@@@std@@@std@@QAE@XZ 0043a2a0 f i ImageMosaicDlg.obj
 0001:000392d0       ??1?$_List_const_iterator@V?$_List_val@U?$_List_simple_types@V?$CStringT@_WV?$StrTraitMFC_DLL@_WV?$ChTraitsCRT@_W@ATL@@@@@ATL@@@std@@@std@@@std@@QAE@XZ 0043a2d0 f i ImageMosaicDlg.obj
 0001:00039300       ??1?$_List_iterator@V?$_List_val@U?$_List_simple_types@V?$CStringT@_WV?$StrTraitMFC_DLL@_WV?$ChTraitsCRT@_W@ATL@@@@@ATL@@@std@@@std@@@std@@QAE@XZ 0043a300 f i ImageMosaicDlg.obj
 0001:00039330       ??1?$_List_unchecked_const_iterator@V?$_List_val@U?$_List_simple_types@V?$CStringT@_WV?$StrTraitMFC_DLL@_WV?$ChTraitsCRT@_W@ATL@@@@@ATL@@@std@@@std@@U_Iterator_base12@2@@std@@QAE@XZ 0043a330 f i ImageMosaicDlg.obj
 0001:00039360       ??1?$_List_val@U?$_List_simple_types@V?$CStringT@_WV?$StrTraitMFC_DLL@_WV?$ChTraitsCRT@_W@ATL@@@@@ATL@@@std@@@std@@QAE@XZ 0043a360 f i ImageMosaicDlg.obj
 0001:000393a0       ??1?$list@V?$CStringT@_WV?$StrTraitMFC_DLL@_WV?$ChTraitsCRT@_W@ATL@@@@@ATL@@V?$allocator@V?$CStringT@_WV?$StrTraitMFC_DLL@_WV?$ChTraitsCRT@_W@ATL@@@@@ATL@@@std@@@std@@QAE@XZ 0043a3a0 f i ImageMosaicDlg.obj
 0001:000393e0       ??1CAboutDlg@@UAE@XZ       0043a3e0 f i ImageMosaicDlg.obj
 0001:00039410       ??1Graphics@Gdiplus@@QAE@XZ 0043a410 f i ImageMosaicDlg.obj
 0001:00039440       ??4?$_Iterator012@Ubidirectional_iterator_tag@std@@V?$CStringT@_WV?$StrTraitMFC_DLL@_WV?$ChTraitsCRT@_W@ATL@@@@@ATL@@HPBV34@ABV34@U_Iterator_base12@2@@std@@QAEAAU01@ABU01@@Z 0043a440 f i ImageMosaicDlg.obj
 0001:00039480       ??4?$_List_const_iterator@V?$_List_val@U?$_List_simple_types@V?$CStringT@_WV?$StrTraitMFC_DLL@_WV?$ChTraitsCRT@_W@ATL@@@@@ATL@@@std@@@std@@@std@@QAEAAV01@ABV01@@Z 0043a480 f i ImageMosaicDlg.obj
 0001:000394c0       ??4?$_List_iterator@V?$_List_val@U?$_List_simple_types@V?$CStringT@_WV?$StrTraitMFC_DLL@_WV?$ChTraitsCRT@_W@ATL@@@@@ATL@@@std@@@std@@@std@@QAEAAV01@ABV01@@Z 0043a4c0 f i ImageMosaicDlg.obj
 0001:00039500       ??4?$_List_unchecked_const_iterator@V?$_List_val@U?$_List_simple_types@V?$CStringT@_WV?$StrTraitMFC_DLL@_WV?$ChTraitsCRT@_W@ATL@@@@@ATL@@@std@@@std@@U_Iterator_base12@2@@std@@QAEAAV01@ABV01@@Z 0043a500 f i ImageMosaicDlg.obj
 0001:00039550       ??8?$_List_const_iterator@V?$_List_val@U?$_List_simple_types@V?$CStringT@_WV?$StrTraitMFC_DLL@_WV?$ChTraitsCRT@_W@ATL@@@@@ATL@@@std@@@std@@@std@@QBE_NABV01@@Z 0043a550 f i ImageMosaicDlg.obj
 0001:00039690       ??9?$_List_const_iterator@V?$_List_val@U?$_List_simple_types@V?$CStringT@_WV?$StrTraitMFC_DLL@_WV?$ChTraitsCRT@_W@ATL@@@@@ATL@@@std@@@std@@@std@@QBE_NABV01@@Z 0043a690 f i ImageMosaicDlg.obj
 0001:000396f0       ??B?$CW2WEX@$0IA@@ATL@@QBEPA_WXZ 0043a6f0 f i ImageMosaicDlg.obj
 0001:00039710       ??D?$_List_const_iterator@V?$_List_val@U?$_List_simple_types@V?$CStringT@_WV?$StrTraitMFC_DLL@_WV?$ChTraitsCRT@_W@ATL@@@@@ATL@@@std@@@std@@@std@@QBEABV?$CStringT@_WV?$StrTraitMFC_DLL@_WV?$ChTraitsCRT@_W@ATL@@@@@ATL@@XZ 0043a710 f i ImageMosaicDlg.obj
 0001:00039830       ??D?$_List_iterator@V?$_List_val@U?$_List_simple_types@V?$CStringT@_WV?$StrTraitMFC_DLL@_WV?$ChTraitsCRT@_W@ATL@@@@@ATL@@@std@@@std@@@std@@QBEAAV?$CStringT@_WV?$StrTraitMFC_DLL@_WV?$ChTraitsCRT@_W@ATL@@@@@ATL@@XZ 0043a830 f i ImageMosaicDlg.obj
 0001:00039860       ??E?$_List_const_iterator@V?$_List_val@U?$_List_simple_types@V?$CStringT@_WV?$StrTraitMFC_DLL@_WV?$ChTraitsCRT@_W@ATL@@@@@ATL@@@std@@@std@@@std@@QAE?AV01@H@Z 0043a860 f i ImageMosaicDlg.obj
 0001:00039970       ??E?$_List_const_iterator@V?$_List_val@U?$_List_simple_types@V?$CStringT@_WV?$StrTraitMFC_DLL@_WV?$ChTraitsCRT@_W@ATL@@@@@ATL@@@std@@@std@@@std@@QAEAAV01@XZ 0043a970 f i ImageMosaicDlg.obj
 0001:00039aa0       ??_G?$CStringT@_WV?$StrTraitMFC_DLL@_WV?$ChTraitsCRT@_W@ATL@@@@@ATL@@QAEPAXI@Z 0043aaa0 f i ImageMosaicDlg.obj
 0001:00039b00       ??_ECAboutDlg@@UAEPAXI@Z   0043ab00 f i ImageMosaicDlg.obj
 0001:00039b00       ??_GCAboutDlg@@UAEPAXI@Z   0043ab00 f i ImageMosaicDlg.obj
 0001:00039b50       ??_GCImageMosaicDlg@@UAEPAXI@Z 0043ab50 f i ImageMosaicDlg.obj
 0001:00039b50       ??_ECImageMosaicDlg@@UAEPAXI@Z 0043ab50 f i ImageMosaicDlg.obj
 0001:00039ba0       ?CreateFromGdiplusBitmap@CImage@ATL@@AAEJAAVBitmap@Gdiplus@@@Z 0043aba0 f i ImageMosaicDlg.obj
 0001:0003a290       ?DrawImage@Graphics@Gdiplus@@QAE?AW4Status@2@PAVImage@2@HH@Z 0043b290 f i ImageMosaicDlg.obj
 0001:0003a310       ?GetHeight@Image@Gdiplus@@QAEIXZ 0043b310 f i ImageMosaicDlg.obj
 0001:0003a3b0       ?GetLastStatus@Image@Gdiplus@@QBE?AW4Status@2@XZ 0043b3b0 f i ImageMosaicDlg.obj
 0001:0003a3f0       ?GetPalette@Image@Gdiplus@@QAE?AW4Status@2@PAUColorPalette@2@H@Z 0043b3f0 f i ImageMosaicDlg.obj
 0001:0003a440       ?GetPaletteSize@Image@Gdiplus@@QAEHXZ 0043b440 f i ImageMosaicDlg.obj
 0001:0003a4e0       ?GetPixelFormat@Image@Gdiplus@@QAEHXZ 0043b4e0 f i ImageMosaicDlg.obj
 0001:0003a570       ?GetPixelFormatSize@Gdiplus@@YAIH@Z 0043b570 f i ImageMosaicDlg.obj
 0001:0003a590       ?GetWidth@Image@Gdiplus@@QAEIXZ 0043b590 f i ImageMosaicDlg.obj
 0001:0003a630       ?Init@?$CW2WEX@$0IA@@ATL@@AAEXPB_W@Z 0043b630 f i ImageMosaicDlg.obj
 0001:0003a740       ?IsAlphaPixelFormat@Gdiplus@@YAHH@Z 0043b740 f i ImageMosaicDlg.obj
 0001:0003a780       ?IsIndexedPixelFormat@Gdiplus@@YAHH@Z 0043b780 f i ImageMosaicDlg.obj
 0001:0003a7c0       ?Load@CImage@ATL@@QAEJPB_W@Z 0043b7c0 f i ImageMosaicDlg.obj
 0001:0003a920       ?LockBits@Bitmap@Gdiplus@@QAE?AW4Status@2@PBVRect@2@IHPAVBitmapData@2@@Z 0043b920 f i ImageMosaicDlg.obj
 0001:0003a980       ?SetNativeGraphics@Graphics@Gdiplus@@IAEXPAVGpGraphics@2@@Z 0043b980 f i ImageMosaicDlg.obj
 0001:0003a9b0       ?SetStatus@Graphics@Gdiplus@@IBE?AW4Status@2@W432@@Z 0043b9b0 f i ImageMosaicDlg.obj
 0001:0003a9f0       ?UnlockBits@Bitmap@Gdiplus@@QAE?AW4Status@2@PAVBitmapData@2@@Z 0043b9f0 f i ImageMosaicDlg.obj
 0001:0003aa40       ?_Alloc_proxy@?$_List_alloc@$0A@U?$_List_base_types@V?$CStringT@_WV?$StrTraitMFC_DLL@_WV?$ChTraitsCRT@_W@ATL@@@@@ATL@@V?$allocator@V?$CStringT@_WV?$StrTraitMFC_DLL@_WV?$ChTraitsCRT@_W@ATL@@@@@ATL@@@std@@@std@@@std@@QAEXXZ 0043ba40 f i ImageMosaicDlg.obj
 0001:0003ab00       ?_Buyheadnode@?$_List_alloc@$0A@U?$_List_base_types@V?$CStringT@_WV?$StrTraitMFC_DLL@_WV?$ChTraitsCRT@_W@ATL@@@@@ATL@@V?$allocator@V?$CStringT@_WV?$StrTraitMFC_DLL@_WV?$ChTraitsCRT@_W@ATL@@@@@ATL@@@std@@@std@@@std@@QAEPAU?$_List_node@V?$CStringT@_WV?$StrTraitMFC_DLL@_WV?$ChTraitsCRT@_W@ATL@@@@@ATL@@PAX@2@XZ 0043bb00 f i ImageMosaicDlg.obj
 0001:0003ab40       ?_Buynode0@?$_List_alloc@$0A@U?$_List_base_types@V?$CStringT@_WV?$StrTraitMFC_DLL@_WV?$ChTraitsCRT@_W@ATL@@@@@ATL@@V?$allocator@V?$CStringT@_WV?$StrTraitMFC_DLL@_WV?$ChTraitsCRT@_W@ATL@@@@@ATL@@@std@@@std@@@std@@QAEPAU?$_List_node@V?$CStringT@_WV?$StrTraitMFC_DLL@_WV?$ChTraitsCRT@_W@ATL@@@@@ATL@@PAX@2@PAU32@0@Z 0043bb40 f i ImageMosaicDlg.obj
 0001:0003ace0       ?_Free_proxy@?$_List_alloc@$0A@U?$_List_base_types@V?$CStringT@_WV?$StrTraitMFC_DLL@_WV?$ChTraitsCRT@_W@ATL@@@@@ATL@@V?$allocator@V?$CStringT@_WV?$StrTraitMFC_DLL@_WV?$ChTraitsCRT@_W@ATL@@@@@ATL@@@std@@@std@@@std@@QAEXXZ 0043bce0 f i ImageMosaicDlg.obj
 0001:0003ada0       ?_Freeheadnode@?$_List_alloc@$0A@U?$_List_base_types@V?$CStringT@_WV?$StrTraitMFC_DLL@_WV?$ChTraitsCRT@_W@ATL@@@@@ATL@@V?$allocator@V?$CStringT@_WV?$StrTraitMFC_DLL@_WV?$ChTraitsCRT@_W@ATL@@@@@ATL@@@std@@@std@@@std@@QAEXPAU?$_List_node@V?$CStringT@_WV?$StrTraitMFC_DLL@_WV?$ChTraitsCRT@_W@ATL@@@@@ATL@@PAX@2@@Z 0043bda0 f i ImageMosaicDlg.obj
 0001:0003ae60       ?_Freenode@?$_List_buy@V?$CStringT@_WV?$StrTraitMFC_DLL@_WV?$ChTraitsCRT@_W@ATL@@@@@ATL@@V?$allocator@V?$CStringT@_WV?$StrTraitMFC_DLL@_WV?$ChTraitsCRT@_W@ATL@@@@@ATL@@@std@@@std@@QAEXPAU?$_List_node@V?$CStringT@_WV?$StrTraitMFC_DLL@_WV?$ChTraitsCRT@_W@ATL@@@@@ATL@@PAX@2@@Z 0043be60 f i ImageMosaicDlg.obj
 0001:0003af50       ?_Getal@?$_List_alloc@$0A@U?$_List_base_types@V?$CStringT@_WV?$StrTraitMFC_DLL@_WV?$ChTraitsCRT@_W@ATL@@@@@ATL@@V?$allocator@V?$CStringT@_WV?$StrTraitMFC_DLL@_WV?$ChTraitsCRT@_W@ATL@@@@@ATL@@@std@@@std@@@std@@QBE?AU?$_Wrap_alloc@V?$allocator@U?$_List_node@V?$CStringT@_WV?$StrTraitMFC_DLL@_WV?$ChTraitsCRT@_W@ATL@@@@@ATL@@PAX@std@@@std@@@2@XZ 0043bf50 f i ImageMosaicDlg.obj
 0001:0003af90       ?_Incsize@?$list@V?$CStringT@_WV?$StrTraitMFC_DLL@_WV?$ChTraitsCRT@_W@ATL@@@@@ATL@@V?$allocator@V?$CStringT@_WV?$StrTraitMFC_DLL@_WV?$ChTraitsCRT@_W@ATL@@@@@ATL@@@std@@@std@@QAEXI@Z 0043bf90 f i ImageMosaicDlg.obj
 0001:0003b000       ?_Make_iter@?$list@V?$CStringT@_WV?$StrTraitMFC_DLL@_WV?$ChTraitsCRT@_W@ATL@@@@@ATL@@V?$allocator@V?$CStringT@_WV?$StrTraitMFC_DLL@_WV?$ChTraitsCRT@_W@ATL@@@@@ATL@@@std@@@std@@QBE?AV?$_List_iterator@V?$_List_val@U?$_List_simple_types@V?$CStringT@_WV?$StrTraitMFC_DLL@_WV?$ChTraitsCRT@_W@ATL@@@@@ATL@@@std@@@std@@@2@V?$_List_const_iterator@V?$_List_val@U?$_List_simple_types@V?$CStringT@_WV?$StrTraitMFC_DLL@_WV?$ChTraitsCRT@_W@ATL@@@@@ATL@@@std@@@std@@@2@@Z 0043c000 f i ImageMosaicDlg.obj
 0001:0003b050       ?_Mynode@?$_List_unchecked_const_iterator@V?$_List_val@U?$_List_simple_types@V?$CStringT@_WV?$StrTraitMFC_DLL@_WV?$ChTraitsCRT@_W@ATL@@@@@ATL@@@std@@@std@@U_Iterator_base0@2@@std@@QBEPAU?$_List_node@V?$CStringT@_WV?$StrTraitMFC_DLL@_WV?$ChTraitsCRT@_W@ATL@@@@@ATL@@PAX@2@XZ 0043c050 f i ImageMosaicDlg.obj
 0001:0003b070       ?_Mynode@?$_List_unchecked_const_iterator@V?$_List_val@U?$_List_simple_types@V?$CStringT@_WV?$StrTraitMFC_DLL@_WV?$ChTraitsCRT@_W@ATL@@@@@ATL@@@std@@@std@@U_Iterator_base12@2@@std@@QBEPAU?$_List_node@V?$CStringT@_WV?$StrTraitMFC_DLL@_WV?$ChTraitsCRT@_W@ATL@@@@@ATL@@PAX@2@XZ 0043c070 f i ImageMosaicDlg.obj
 0001:0003b090       ?_Myval@?$_List_val@U?$_List_simple_types@V?$CStringT@_WV?$StrTraitMFC_DLL@_WV?$ChTraitsCRT@_W@ATL@@@@@ATL@@@std@@@std@@SAAAV?$CStringT@_WV?$StrTraitMFC_DLL@_WV?$ChTraitsCRT@_W@ATL@@@@@ATL@@PAU?$_List_node@V?$CStringT@_WV?$StrTraitMFC_DLL@_WV?$ChTraitsCRT@_W@ATL@@@@@ATL@@PAX@2@@Z 0043c090 f i ImageMosaicDlg.obj
 0001:0003b0a0       ?_Nextnode@?$_List_val@U?$_List_simple_types@V?$CStringT@_WV?$StrTraitMFC_DLL@_WV?$ChTraitsCRT@_W@ATL@@@@@ATL@@@std@@@std@@SAAAPAU?$_List_node@V?$CStringT@_WV?$StrTraitMFC_DLL@_WV?$ChTraitsCRT@_W@ATL@@@@@ATL@@PAX@2@PAU32@@Z 0043c0a0 f i ImageMosaicDlg.obj
 0001:0003b0b0       ?_Orphan_ptr@?$list@V?$CStringT@_WV?$StrTraitMFC_DLL@_WV?$ChTraitsCRT@_W@ATL@@@@@ATL@@V?$allocator@V?$CStringT@_WV?$StrTraitMFC_DLL@_WV?$ChTraitsCRT@_W@ATL@@@@@ATL@@@std@@@std@@QBEXAAV12@PAU?$_List_node@V?$CStringT@_WV?$StrTraitMFC_DLL@_WV?$ChTraitsCRT@_W@ATL@@@@@ATL@@PAX@2@@Z 0043c0b0 f i ImageMosaicDlg.obj
 0001:0003b230       ?_Prevnode@?$_List_val@U?$_List_simple_types@V?$CStringT@_WV?$StrTraitMFC_DLL@_WV?$ChTraitsCRT@_W@ATL@@@@@ATL@@@std@@@std@@SAAAPAU?$_List_node@V?$CStringT@_WV?$StrTraitMFC_DLL@_WV?$ChTraitsCRT@_W@ATL@@@@@ATL@@PAX@2@PAU32@@Z 0043c230 f i ImageMosaicDlg.obj
 0001:0003b240       ?_Tidy@?$list@V?$CStringT@_WV?$StrTraitMFC_DLL@_WV?$ChTraitsCRT@_W@ATL@@@@@ATL@@V?$allocator@V?$CStringT@_WV?$StrTraitMFC_DLL@_WV?$ChTraitsCRT@_W@ATL@@@@@ATL@@@std@@@std@@QAEXXZ 0043c240 f i ImageMosaicDlg.obj
 0001:0003b270       ?_Unchecked_end@?$list@V?$CStringT@_WV?$StrTraitMFC_DLL@_WV?$ChTraitsCRT@_W@ATL@@@@@ATL@@V?$allocator@V?$CStringT@_WV?$StrTraitMFC_DLL@_WV?$ChTraitsCRT@_W@ATL@@@@@ATL@@@std@@@std@@QAE?AV?$_List_unchecked_iterator@V?$_List_val@U?$_List_simple_types@V?$CStringT@_WV?$StrTraitMFC_DLL@_WV?$ChTraitsCRT@_W@ATL@@@@@ATL@@@std@@@std@@@2@XZ 0043c270 f i ImageMosaicDlg.obj
 0001:0003b2c0       ?_Unlinknode@?$list@V?$CStringT@_WV?$StrTraitMFC_DLL@_WV?$ChTraitsCRT@_W@ATL@@@@@ATL@@V?$allocator@V?$CStringT@_WV?$StrTraitMFC_DLL@_WV?$ChTraitsCRT@_W@ATL@@@@@ATL@@@std@@@std@@QAEPAU?$_List_node@V?$CStringT@_WV?$StrTraitMFC_DLL@_WV?$ChTraitsCRT@_W@ATL@@@@@ATL@@PAX@2@V?$_List_const_iterator@V?$_List_val@U?$_List_simple_types@V?$CStringT@_WV?$StrTraitMFC_DLL@_WV?$ChTraitsCRT@_W@ATL@@@@@ATL@@@std@@@std@@@2@@Z 0043c2c0 f i ImageMosaicDlg.obj
 0001:0003b440       ?allocate@?$_Wrap_alloc@V?$allocator@U?$_List_node@V?$CStringT@_WV?$StrTraitMFC_DLL@_WV?$ChTraitsCRT@_W@ATL@@@@@ATL@@PAX@std@@@std@@@std@@QAEPAU?$_List_node@V?$CStringT@_WV?$StrTraitMFC_DLL@_WV?$ChTraitsCRT@_W@ATL@@@@@ATL@@PAX@2@I@Z 0043c440 f i ImageMosaicDlg.obj
 0001:0003b480       ?allocate@?$allocator@U?$_List_node@V?$CStringT@_WV?$StrTraitMFC_DLL@_WV?$ChTraitsCRT@_W@ATL@@@@@ATL@@PAX@std@@@std@@QAEPAU?$_List_node@V?$CStringT@_WV?$StrTraitMFC_DLL@_WV?$ChTraitsCRT@_W@ATL@@@@@ATL@@PAX@2@I@Z 0043c480 f i ImageMosaicDlg.obj
 0001:0003b4c0       ?begin@?$list@V?$CStringT@_WV?$StrTraitMFC_DLL@_WV?$ChTraitsCRT@_W@ATL@@@@@ATL@@V?$allocator@V?$CStringT@_WV?$StrTraitMFC_DLL@_WV?$ChTraitsCRT@_W@ATL@@@@@ATL@@@std@@@std@@QAE?AV?$_List_iterator@V?$_List_val@U?$_List_simple_types@V?$CStringT@_WV?$StrTraitMFC_DLL@_WV?$ChTraitsCRT@_W@ATL@@@@@ATL@@@std@@@std@@@2@XZ 0043c4c0 f i ImageMosaicDlg.obj
 0001:0003b510       ?clear@?$list@V?$CStringT@_WV?$StrTraitMFC_DLL@_WV?$ChTraitsCRT@_W@ATL@@@@@ATL@@V?$allocator@V?$CStringT@_WV?$StrTraitMFC_DLL@_WV?$ChTraitsCRT@_W@ATL@@@@@ATL@@@std@@@std@@QAEXXZ 0043c510 f i ImageMosaicDlg.obj
 0001:0003b600       ?deallocate@?$_Wrap_alloc@V?$allocator@U?$_List_node@V?$CStringT@_WV?$StrTraitMFC_DLL@_WV?$ChTraitsCRT@_W@ATL@@@@@ATL@@PAX@std@@@std@@@std@@QAEXPAU?$_List_node@V?$CStringT@_WV?$StrTraitMFC_DLL@_WV?$ChTraitsCRT@_W@ATL@@@@@ATL@@PAX@2@I@Z 0043c600 f i ImageMosaicDlg.obj
 0001:0003b640       ?deallocate@?$allocator@U?$_List_node@V?$CStringT@_WV?$StrTraitMFC_DLL@_WV?$ChTraitsCRT@_W@ATL@@@@@ATL@@PAX@std@@@std@@QAEXPAU?$_List_node@V?$CStringT@_WV?$StrTraitMFC_DLL@_WV?$ChTraitsCRT@_W@ATL@@@@@ATL@@PAX@2@I@Z 0043c640 f i ImageMosaicDlg.obj
 0001:0003b680       ?end@?$list@V?$CStringT@_WV?$StrTraitMFC_DLL@_WV?$ChTraitsCRT@_W@ATL@@@@@ATL@@V?$allocator@V?$CStringT@_WV?$StrTraitMFC_DLL@_WV?$ChTraitsCRT@_W@ATL@@@@@ATL@@@std@@@std@@QAE?AV?$_List_iterator@V?$_List_val@U?$_List_simple_types@V?$CStringT@_WV?$StrTraitMFC_DLL@_WV?$ChTraitsCRT@_W@ATL@@@@@ATL@@@std@@@std@@@2@XZ 0043c680 f i ImageMosaicDlg.obj
 0001:0003b6d0       ?erase@?$list@V?$CStringT@_WV?$StrTraitMFC_DLL@_WV?$ChTraitsCRT@_W@ATL@@@@@ATL@@V?$allocator@V?$CStringT@_WV?$StrTraitMFC_DLL@_WV?$ChTraitsCRT@_W@ATL@@@@@ATL@@@std@@@std@@QAE?AV?$_List_iterator@V?$_List_val@U?$_List_simple_types@V?$CStringT@_WV?$StrTraitMFC_DLL@_WV?$ChTraitsCRT@_W@ATL@@@@@ATL@@@std@@@std@@@2@V?$_List_const_iterator@V?$_List_val@U?$_List_simple_types@V?$CStringT@_WV?$StrTraitMFC_DLL@_WV?$ChTraitsCRT@_W@ATL@@@@@ATL@@@std@@@std@@@2@@Z 0043c6d0 f i ImageMosaicDlg.obj
 0001:0003b7f0       ?max_size@?$_Wrap_alloc@V?$allocator@U?$_List_node@V?$CStringT@_WV?$StrTraitMFC_DLL@_WV?$ChTraitsCRT@_W@ATL@@@@@ATL@@PAX@std@@@std@@@std@@QBEIXZ 0043c7f0 f i ImageMosaicDlg.obj
 0001:0003b830       ?max_size@?$allocator@U?$_List_node@V?$CStringT@_WV?$StrTraitMFC_DLL@_WV?$ChTraitsCRT@_W@ATL@@@@@ATL@@PAX@std@@@std@@QBEIXZ 0043c830 f i ImageMosaicDlg.obj
 0001:0003b850       ?max_size@?$allocator_traits@V?$allocator@U?$_List_node@V?$CStringT@_WV?$StrTraitMFC_DLL@_WV?$ChTraitsCRT@_W@ATL@@@@@ATL@@PAX@std@@@std@@@std@@SAIABV?$allocator@U?$_List_node@V?$CStringT@_WV?$StrTraitMFC_DLL@_WV?$ChTraitsCRT@_W@ATL@@@@@ATL@@PAX@std@@@2@@Z 0043c850 f i ImageMosaicDlg.obj
 0001:0003b870       ?max_size@?$list@V?$CStringT@_WV?$StrTraitMFC_DLL@_WV?$ChTraitsCRT@_W@ATL@@@@@ATL@@V?$allocator@V?$CStringT@_WV?$StrTraitMFC_DLL@_WV?$ChTraitsCRT@_W@ATL@@@@@ATL@@@std@@@std@@QBEIXZ 0043c870 f i ImageMosaicDlg.obj
 0001:0003b8c0       ?push_back@?$list@V?$CStringT@_WV?$StrTraitMFC_DLL@_WV?$ChTraitsCRT@_W@ATL@@@@@ATL@@V?$allocator@V?$CStringT@_WV?$StrTraitMFC_DLL@_WV?$ChTraitsCRT@_W@ATL@@@@@ATL@@@std@@@std@@QAEXABV?$CStringT@_WV?$StrTraitMFC_DLL@_WV?$ChTraitsCRT@_W@ATL@@@@@ATL@@@Z 0043c8c0 f i ImageMosaicDlg.obj
 0001:0003b930       ?reverse@?$list@V?$CStringT@_WV?$StrTraitMFC_DLL@_WV?$ChTraitsCRT@_W@ATL@@@@@ATL@@V?$allocator@V?$CStringT@_WV?$StrTraitMFC_DLL@_WV?$ChTraitsCRT@_W@ATL@@@@@ATL@@@std@@@std@@QAEXXZ 0043c930 f i ImageMosaicDlg.obj
 0001:0003b9e0       ?size@?$list@V?$CStringT@_WV?$StrTraitMFC_DLL@_WV?$ChTraitsCRT@_W@ATL@@@@@ATL@@V?$allocator@V?$CStringT@_WV?$StrTraitMFC_DLL@_WV?$ChTraitsCRT@_W@ATL@@@@@ATL@@@std@@@std@@QBEIXZ 0043c9e0 f i ImageMosaicDlg.obj
 0001:0003ba00       ?_AfxInitManaged@@YAHXZ    0043ca00 f i stdafx.obj
 0001:0003ba10       ??$AtlAdd@H@ATL@@YAJPAHHH@Z 0043ca10 f i stdafx.obj
 0001:0003ba60       ??$AtlAdd@I@ATL@@YAJPAIII@Z 0043ca60 f i stdafx.obj
 0001:0003baa0       ??$AtlAlignUp@H@ATL@@YGHHK@Z 0043caa0 f i stdafx.obj
 0001:0003bad0       ??$AtlMultiply@K@ATL@@YAJPAKKK@Z 0043cad0 f i stdafx.obj
 0001:0003bb40       ??0?$CSimpleArray@GV?$CSimpleArrayEqualHelper@G@ATL@@@ATL@@QAE@XZ 0043cb40 f i stdafx.obj
 0001:0003bb80       ??0?$CTraceCategoryEx@$00$0A@@ATL@@QAE@PB_W@Z 0043cb80 f i stdafx.obj
 0001:0003bbc0       ??0?$CTraceCategoryEx@$01$0A@@ATL@@QAE@PB_W@Z 0043cbc0 f i stdafx.obj
 0001:0003bc00       ??0?$CTraceCategoryEx@$03$0A@@ATL@@QAE@PB_W@Z 0043cc00 f i stdafx.obj
 0001:0003bc40       ??0?$CTraceCategoryEx@$07$0A@@ATL@@QAE@PB_W@Z 0043cc40 f i stdafx.obj
 0001:0003bc80       ??0?$CTraceCategoryEx@$0BA@$0A@@ATL@@QAE@PB_W@Z 0043cc80 f i stdafx.obj
 0001:0003bcc0       ??0?$CTraceCategoryEx@$0BAA@$0A@@ATL@@QAE@PB_W@Z 0043ccc0 f i stdafx.obj
 0001:0003bd00       ??0?$CTraceCategoryEx@$0BAAA@$0A@@ATL@@QAE@PB_W@Z 0043cd00 f i stdafx.obj
 0001:0003bd40       ??0?$CTraceCategoryEx@$0BAAAA@$0A@@ATL@@QAE@PB_W@Z 0043cd40 f i stdafx.obj
 0001:0003bd80       ??0?$CTraceCategoryEx@$0BAAAAA@$0A@@ATL@@QAE@PB_W@Z 0043cd80 f i stdafx.obj
 0001:0003bdc0       ??0?$CTraceCategoryEx@$0CA@$0A@@ATL@@QAE@PB_W@Z 0043cdc0 f i stdafx.obj
 0001:0003be00       ??0?$CTraceCategoryEx@$0CAA@$0A@@ATL@@QAE@PB_W@Z 0043ce00 f i stdafx.obj
 0001:0003be40       ??0?$CTraceCategoryEx@$0CAAAAA@$0A@@ATL@@QAE@PB_W@Z 0043ce40 f i stdafx.obj
 0001:0003be80       ??0?$CTraceCategoryEx@$0EA@$0A@@ATL@@QAE@PB_W@Z 0043ce80 f i stdafx.obj
 0001:0003bec0       ??0?$CTraceCategoryEx@$0EAA@$0A@@ATL@@QAE@PB_W@Z 0043cec0 f i stdafx.obj
 0001:0003bf00       ??0?$CTraceCategoryEx@$0EAAA@$0A@@ATL@@QAE@PB_W@Z 0043cf00 f i stdafx.obj
 0001:0003bf40       ??0?$CTraceCategoryEx@$0EAAAA@$0A@@ATL@@QAE@PB_W@Z 0043cf40 f i stdafx.obj
 0001:0003bf80       ??0?$CTraceCategoryEx@$0EAAAAA@$0A@@ATL@@QAE@PB_W@Z 0043cf80 f i stdafx.obj
 0001:0003bfc0       ??0?$CTraceCategoryEx@$0IA@$0A@@ATL@@QAE@PB_W@Z 0043cfc0 f i stdafx.obj
 0001:0003c000       ??0?$CTraceCategoryEx@$0IAA@$0A@@ATL@@QAE@PB_W@Z 0043d000 f i stdafx.obj
 0001:0003c040       ??0?$CTraceCategoryEx@$0IAAA@$0A@@ATL@@QAE@PB_W@Z 0043d040 f i stdafx.obj
 0001:0003c080       ??0?$CTraceCategoryEx@$0IAAAA@$0A@@ATL@@QAE@PB_W@Z 0043d080 f i stdafx.obj
 0001:0003c0c0       ??0CAtlComModule@ATL@@QAE@XZ 0043d0c0 f i stdafx.obj
 0001:0003c1e0       ??0CAtlStringMgr@ATL@@QAE@PAUIAtlMemMgr@1@@Z 0043d1e0 f i stdafx.obj
 0001:0003c240       ??0CAtlWinModule@ATL@@QAE@XZ 0043d240 f i stdafx.obj
 0001:0003c300       ??0CComCriticalSection@ATL@@QAE@XZ 0043d300 f i stdafx.obj
 0001:0003c340       ??0CNilStringData@ATL@@QAE@XZ 0043d340 f i stdafx.obj
 0001:0003c3c0       ??0CWin32Heap@ATL@@QAE@PAX@Z 0043d3c0 f i stdafx.obj
 0001:0003c450       ??0_ATL_COM_MODULE70@ATL@@QAE@XZ 0043d450 f i stdafx.obj
 0001:0003c490       ??0_ATL_WIN_MODULE70@ATL@@QAE@XZ 0043d490 f i stdafx.obj
 0001:0003c520       ??1?$CSimpleArray@GV?$CSimpleArrayEqualHelper@G@ATL@@@ATL@@QAE@XZ 0043d520 f i stdafx.obj
 0001:0003c550       ??1CAtlComModule@ATL@@QAE@XZ 0043d550 f i stdafx.obj
 0001:0003c5d0       ??1CAtlStringMgr@ATL@@UAE@XZ 0043d5d0 f i stdafx.obj
 0001:0003c600       ??1CAtlWinModule@ATL@@QAE@XZ 0043d600 f i stdafx.obj
 0001:0003c680       ??1CComCriticalSection@ATL@@QAE@XZ 0043d680 f i stdafx.obj
 0001:0003c6a0       ??1CWin32Heap@ATL@@UAE@XZ  0043d6a0 f i stdafx.obj
 0001:0003c760       ??1_ATL_COM_MODULE70@ATL@@QAE@XZ 0043d760 f i stdafx.obj
 0001:0003c790       ??1_ATL_WIN_MODULE70@ATL@@QAE@XZ 0043d790 f i stdafx.obj
 0001:0003c820       ??A?$CSimpleArray@GV?$CSimpleArrayEqualHelper@G@ATL@@@ATL@@QAEAAGH@Z 0043d820 f i stdafx.obj
 0001:0003c8d0       ??B?$CTraceCategoryEx@$01$0A@@ATL@@QAEIXZ 0043d8d0 f i stdafx.obj
 0001:0003c8f0       ??B?$CTraceCategoryEx@$0CA@$0A@@ATL@@QAEIXZ 0043d8f0 f i stdafx.obj
 0001:0003c910       ??_ECAtlStringMgr@ATL@@UAEPAXI@Z 0043d910 f i stdafx.obj
 0001:0003c910       ??_GCAtlStringMgr@ATL@@UAEPAXI@Z 0043d910 f i stdafx.obj
 0001:0003c960       ??_ECWin32Heap@ATL@@UAEPAXI@Z 0043d960 f i stdafx.obj
 0001:0003c960       ??_GCWin32Heap@ATL@@UAEPAXI@Z 0043d960 f i stdafx.obj
 0001:0003c9b0       ?AddRef@CStringData@ATL@@QAEXXZ 0043d9b0 f i stdafx.obj
 0001:0003ca30       ?Allocate@CAtlStringMgr@ATL@@UAEPAUCStringData@2@HH@Z 0043da30 f i stdafx.obj
 0001:0003cca0       ?Allocate@CWin32Heap@ATL@@UAEPAXI@Z 0043dca0 f i stdafx.obj
 0001:0003ccf0       ?AtlWinModuleInit@ATL@@YGJPAU_ATL_WIN_MODULE70@1@@Z 0043dcf0 f i stdafx.obj
 0001:0003ce00       ?AtlWinModuleTerm@ATL@@YGJPAU_ATL_WIN_MODULE70@1@PAUHINSTANCE__@@@Z 0043de00 f i stdafx.obj
 0001:0003cee0       ?Clone@CAtlStringMgr@ATL@@UAEPAUIAtlStringMgr@2@XZ 0043dee0 f i stdafx.obj
 0001:0003cf00       ?Free@CAtlStringMgr@ATL@@UAEXPAUCStringData@2@@Z 0043df00 f i stdafx.obj
 0001:0003cfe0       ?Free@CWin32Heap@ATL@@UAEXPAX@Z 0043dfe0 f i stdafx.obj
 0001:0003d090       ?GetInstance@CAtlStringMgr@ATL@@SAPAUIAtlStringMgr@2@XZ 0043e090 f i stdafx.obj
 0001:0003d140       ?GetModuleInstance@CAtlBaseModule@ATL@@QAEPAUHINSTANCE__@@XZ 0043e140 f i stdafx.obj
 0001:0003d160       ?GetNilString@CAtlStringMgr@ATL@@UAEPAUCStringData@2@XZ 0043e160 f i stdafx.obj
 0001:0003d1a0       ?GetSize@?$CSimpleArray@GV?$CSimpleArrayEqualHelper@G@ATL@@@ATL@@QBEHXZ 0043e1a0 f i stdafx.obj
 0001:0003d1c0       ?GetSize@CWin32Heap@ATL@@UAEIPAX@Z 0043e1c0 f i stdafx.obj
 0001:0003d210       ?Init@CComCriticalSection@ATL@@QAEJXZ 0043e210 f i stdafx.obj
 0001:0003d290       ?Reallocate@CAtlStringMgr@ATL@@UAEPAUCStringData@2@PAU32@HH@Z 0043e290 f i stdafx.obj
 0001:0003d520       ?Reallocate@CWin32Heap@ATL@@UAEPAXPAXI@Z 0043e520 f i stdafx.obj
 0001:0003d5d0       ?RemoveAll@?$CSimpleArray@GV?$CSimpleArrayEqualHelper@G@ATL@@@ATL@@QAEXXZ 0043e5d0 f i stdafx.obj
 0001:0003d680       ?SetManager@CNilStringData@ATL@@QAEXPAUIAtlStringMgr@2@@Z 0043e680 f i stdafx.obj
 0001:0003d700       ?StaticInitialize@CAtlStringMgr@ATL@@CA_NXZ 0043e700 f i stdafx.obj
 0001:0003d720       ?Term@CAtlComModule@ATL@@QAEXXZ 0043e720 f i stdafx.obj
 0001:0003d810       ?Term@CAtlWinModule@ATL@@QAEXXZ 0043e810 f i stdafx.obj
 0001:0003d850       ?Term@CComCriticalSection@ATL@@QAEJXZ 0043e850 f i stdafx.obj
 0001:0003d890       ?_AtlRaiseException@ATL@@YAXKK@Z 0043e890 f i stdafx.obj
 0001:0003d8c4       ??3@YAXPAX@Z               0043e8c4 f   mfc120ud:mfc120ud.dll
 0001:0003d8ca       ?AfxThrowMemoryException@@YGXXZ 0043e8ca f   mfc120ud:mfc120ud.dll
 0001:0003d8d0       ?AfxThrowInvalidArgException@@YGXXZ 0043e8d0 f   mfc120ud:mfc120ud.dll
 0001:0003d8d6       ?AfxThrowOleException@@YGXJ@Z 0043e8d6 f   mfc120ud:mfc120ud.dll
 0001:0003d8dc       ??3CObject@@SGXPAX@Z       0043e8dc f   mfc120ud:mfc120ud.dll
 0001:0003d8e2       ?Serialize@CObject@@UAEXAAVCArchive@@@Z 0043e8e2 f   mfc120ud:mfc120ud.dll
 0001:0003d8e8       ??B?$CSimpleStringT@_W$00@ATL@@QBEPB_WXZ 0043e8e8 f   mfc120ud:mfc120ud.dll
 0001:0003d8ee       ?GetLength@?$CSimpleStringT@_W$00@ATL@@QBEHXZ 0043e8ee f   mfc120ud:mfc120ud.dll
 0001:0003d8f4       ?IsEmpty@?$CSimpleStringT@_W$00@ATL@@QBE_NXZ 0043e8f4 f   mfc120ud:mfc120ud.dll
 0001:0003d8fa       ?StringLength@?$CSimpleStringT@_W$00@ATL@@SAHPB_W@Z 0043e8fa f   mfc120ud:mfc120ud.dll
 0001:0003d900       ?Concatenate@?$CSimpleStringT@_W$00@ATL@@KAXAAV12@PB_WH1H@Z 0043e900 f   mfc120ud:mfc120ud.dll
 0001:0003d906       ??0?$CStringT@_WV?$StrTraitMFC_DLL@_WV?$ChTraitsCRT@_W@ATL@@@@@ATL@@QAE@XZ 0043e906 f   mfc120ud:mfc120ud.dll
 0001:0003d90c       ??0?$CStringT@_WV?$StrTraitMFC_DLL@_WV?$ChTraitsCRT@_W@ATL@@@@@ATL@@QAE@PAUIAtlStringMgr@1@@Z 0043e90c f   mfc120ud:mfc120ud.dll
 0001:0003d912       ??0?$CStringT@_WV?$StrTraitMFC_DLL@_WV?$ChTraitsCRT@_W@ATL@@@@@ATL@@QAE@ABV01@@Z 0043e912 f   mfc120ud:mfc120ud.dll
 0001:0003d918       ??0?$CStringT@_WV?$StrTraitMFC_DLL@_WV?$ChTraitsCRT@_W@ATL@@@@@ATL@@QAE@PB_W@Z 0043e918 f   mfc120ud:mfc120ud.dll
 0001:0003d91e       ??1?$CStringT@_WV?$StrTraitMFC_DLL@_WV?$ChTraitsCRT@_W@ATL@@@@@ATL@@QAE@XZ 0043e91e f   mfc120ud:mfc120ud.dll
 0001:0003d924       ??4?$CStringT@_WV?$StrTraitMFC_DLL@_WV?$ChTraitsCRT@_W@ATL@@@@@ATL@@QAEAAV01@ABV01@@Z 0043e924 f   mfc120ud:mfc120ud.dll
 0001:0003d92a       ??4?$CStringT@_WV?$StrTraitMFC_DLL@_WV?$ChTraitsCRT@_W@ATL@@@@@ATL@@QAEAAV01@PB_W@Z 0043e92a f   mfc120ud:mfc120ud.dll
 0001:0003d930       ??4?$CStringT@_WV?$StrTraitMFC_DLL@_WV?$ChTraitsCRT@_W@ATL@@@@@ATL@@QAEAAV01@PBD@Z 0043e930 f   mfc120ud:mfc120ud.dll
 0001:0003d936       ?GetManager@?$CStringT@_WV?$StrTraitMFC_DLL@_WV?$ChTraitsCRT@_W@ATL@@@@@ATL@@QBEPAUIAtlStringMgr@2@XZ 0043e936 f   mfc120ud:mfc120ud.dll
 0001:0003d93c       ?CompareNoCase@?$CStringT@_WV?$StrTraitMFC_DLL@_WV?$ChTraitsCRT@_W@ATL@@@@@ATL@@QBEHPB_W@Z 0043e93c f   mfc120ud:mfc120ud.dll
 0001:0003d942       ?Tokenize@?$CStringT@_WV?$StrTraitMFC_DLL@_WV?$ChTraitsCRT@_W@ATL@@@@@ATL@@QBE?AV12@PB_WAAH@Z 0043e942 f   mfc120ud:mfc120ud.dll
 0001:0003d948       ?LoadStringW@?$CStringT@_WV?$StrTraitMFC_DLL@_WV?$ChTraitsCRT@_W@ATL@@@@@ATL@@QAEHI@Z 0043e948 f   mfc120ud:mfc120ud.dll
 0001:0003d94e       ?GetSafeHdc@CDC@@QBEPAUHDC__@@XZ 0043e94e f   mfc120ud:mfc120ud.dll
 0001:0003d954       ??0CPaintDC@@QAE@PAVCWnd@@@Z 0043e954 f   mfc120ud:mfc120ud.dll
 0001:0003d95a       ??1CPaintDC@@UAE@XZ        0043e95a f   mfc120ud:mfc120ud.dll
 0001:0003d960       ?AppendMenuW@CMenu@@QAEHIIPB_W@Z 0043e960 f   mfc120ud:mfc120ud.dll
 0001:0003d966       ?DDX_Control@@YGXPAVCDataExchange@@HAAVCWnd@@@Z 0043e966 f   mfc120ud:mfc120ud.dll
 0001:0003d96c       ?IsInvokeAllowed@CCmdTarget@@UAEHJ@Z 0043e96c f   mfc120ud:mfc120ud.dll
 0001:0003d972       ?GetDispatchIID@CCmdTarget@@UAEHPAU_GUID@@@Z 0043e972 f   mfc120ud:mfc120ud.dll
 0001:0003d978       ?GetTypeInfoCount@CCmdTarget@@UAEIXZ 0043e978 f   mfc120ud:mfc120ud.dll
 0001:0003d97e       ?GetTypeLibCache@CCmdTarget@@UAEPAVCTypeLibCache@@XZ 0043e97e f   mfc120ud:mfc120ud.dll
 0001:0003d984       ?GetTypeLib@CCmdTarget@@UAEJKPAPAUITypeLib@@@Z 0043e984 f   mfc120ud:mfc120ud.dll
 0001:0003d98a       ?GetCommandMap@CCmdTarget@@MBEPBUAFX_OLECMDMAP@@XZ 0043e98a f   mfc120ud:mfc120ud.dll
 0001:0003d990       ?GetDispatchMap@CCmdTarget@@MBEPBUAFX_DISPMAP@@XZ 0043e990 f   mfc120ud:mfc120ud.dll
 0001:0003d996       ?GetConnectionMap@CCmdTarget@@MBEPBUAFX_CONNECTIONMAP@@XZ 0043e996 f   mfc120ud:mfc120ud.dll
 0001:0003d99c       ?GetEventSinkMap@CCmdTarget@@MBEPBUAFX_EVENTSINKMAP@@XZ 0043e99c f   mfc120ud:mfc120ud.dll
 0001:0003d9a2       ?OnCreateAggregates@CCmdTarget@@UAEHXZ 0043e9a2 f   mfc120ud:mfc120ud.dll
 0001:0003d9a8       ?GetInterfaceHook@CCmdTarget@@UAEPAUIUnknown@@PBX@Z 0043e9a8 f   mfc120ud:mfc120ud.dll
 0001:0003d9ae       ?GetExtraConnectionPoints@CCmdTarget@@MAEHPAVCPtrArray@@@Z 0043e9ae f   mfc120ud:mfc120ud.dll
 0001:0003d9b4       ?GetConnectionHook@CCmdTarget@@MAEPAUIConnectionPoint@@ABU_GUID@@@Z 0043e9b4 f   mfc120ud:mfc120ud.dll
 0001:0003d9ba       ?PreSubclassWindow@CWnd@@UAEXXZ 0043e9ba f   mfc120ud:mfc120ud.dll
 0001:0003d9c0       ?Create@CWnd@@UAEHPB_W0KABUtagRECT@@PAV1@IPAUCCreateContext@@@Z 0043e9c0 f   mfc120ud:mfc120ud.dll
 0001:0003d9c6       ?CreateEx@CWnd@@UAEHKPB_W0KHHHHPAUHWND__@@PAUHMENU__@@PAX@Z 0043e9c6 f   mfc120ud:mfc120ud.dll
 0001:0003d9cc       ?CreateEx@CWnd@@UAEHKPB_W0KABUtagRECT@@PAV1@IPAX@Z 0043e9cc f   mfc120ud:mfc120ud.dll
 0001:0003d9d2       ?DestroyWindow@CWnd@@UAEHXZ 0043e9d2 f   mfc120ud:mfc120ud.dll
 0001:0003d9d8       ?PreCreateWindow@CWnd@@UAEHAAUtagCREATESTRUCTW@@@Z 0043e9d8 f   mfc120ud:mfc120ud.dll
 0001:0003d9de       ?CalcWindowRect@CWnd@@UAEXPAUtagRECT@@I@Z 0043e9de f   mfc120ud:mfc120ud.dll
 0001:0003d9e4       ?GetDlgItem@CWnd@@QBEPAV1@H@Z 0043e9e4 f   mfc120ud:mfc120ud.dll
 0001:0003d9ea       ?GetMenu@CWnd@@UBEPAVCMenu@@XZ 0043e9ea f   mfc120ud:mfc120ud.dll
 0001:0003d9f0       ?SetMenu@CWnd@@UAEHPAVCMenu@@@Z 0043e9f0 f   mfc120ud:mfc120ud.dll
 0001:0003d9f6       ?GetSystemMenu@CWnd@@QBEPAVCMenu@@H@Z 0043e9f6 f   mfc120ud:mfc120ud.dll
 0001:0003d9fc       ?SetWindowPos@CWnd@@QAEHPBV1@HHHHI@Z 0043e9fc f   mfc120ud:mfc120ud.dll
 0001:0003da02       ?GetWindowRect@CWnd@@QBEXPAUtagRECT@@@Z 0043ea02 f   mfc120ud:mfc120ud.dll
 0001:0003da08       ?OnToolHitTest@CWnd@@UBEHVCPoint@@PAUtagTOOLINFOW@@@Z 0043ea08 f   mfc120ud:mfc120ud.dll
 0001:0003da0e       ?GetScrollBarCtrl@CWnd@@UBEPAVCScrollBar@@H@Z 0043ea0e f   mfc120ud:mfc120ud.dll
 0001:0003da14       ?SetIcon@CWnd@@QAEPAUHICON__@@PAU2@H@Z 0043ea14 f   mfc120ud:mfc120ud.dll
 0001:0003da1a       ?WinHelpW@CWnd@@UAEXKI@Z   0043ea1a f   mfc120ud:mfc120ud.dll
 0001:0003da20       ?HtmlHelpW@CWnd@@UAEXKI@Z  0043ea20 f   mfc120ud:mfc120ud.dll
 0001:0003da26       ?WinHelpInternal@CWnd@@UAEXKI@Z 0043ea26 f   mfc120ud:mfc120ud.dll
 0001:0003da2c       ?ContinueModal@CWnd@@UAEHXZ 0043ea2c f   mfc120ud:mfc120ud.dll
 0001:0003da32       ?EndModalLoop@CWnd@@UAEXH@Z 0043ea32 f   mfc120ud:mfc120ud.dll
 0001:0003da38       ?OnDrawIconicThumbnailOrLivePreview@CWnd@@UAEXAAVCDC@@VCRect@@VCSize@@HAAH@Z 0043ea38 f   mfc120ud:mfc120ud.dll
 0001:0003da3e       ?GetInterfaceMap@CWnd@@MBEPBUAFX_INTERFACEMAP@@XZ 0043ea3e f   mfc120ud:mfc120ud.dll
 0001:0003da44       ?EnsureStdObj@CWnd@@UAEJXZ 0043ea44 f   mfc120ud:mfc120ud.dll
 0001:0003da4a       ?get_accParent@CWnd@@UAEJPAPAUIDispatch@@@Z 0043ea4a f   mfc120ud:mfc120ud.dll
 0001:0003da50       ?get_accChildCount@CWnd@@UAEJPAJ@Z 0043ea50 f   mfc120ud:mfc120ud.dll
 0001:0003da56       ?get_accChild@CWnd@@UAEJUtagVARIANT@@PAPAUIDispatch@@@Z 0043ea56 f   mfc120ud:mfc120ud.dll
 0001:0003da5c       ?get_accName@CWnd@@UAEJUtagVARIANT@@PAPA_W@Z 0043ea5c f   mfc120ud:mfc120ud.dll
 0001:0003da62       ?get_accValue@CWnd@@UAEJUtagVARIANT@@PAPA_W@Z 0043ea62 f   mfc120ud:mfc120ud.dll
 0001:0003da68       ?get_accDescription@CWnd@@UAEJUtagVARIANT@@PAPA_W@Z 0043ea68 f   mfc120ud:mfc120ud.dll
 0001:0003da6e       ?get_accRole@CWnd@@UAEJUtagVARIANT@@PAU2@@Z 0043ea6e f   mfc120ud:mfc120ud.dll
 0001:0003da74       ?get_accState@CWnd@@UAEJUtagVARIANT@@PAU2@@Z 0043ea74 f   mfc120ud:mfc120ud.dll
 0001:0003da7a       ?get_accHelp@CWnd@@UAEJUtagVARIANT@@PAPA_W@Z 0043ea7a f   mfc120ud:mfc120ud.dll
 0001:0003da80       ?get_accHelpTopic@CWnd@@UAEJPAPA_WUtagVARIANT@@PAJ@Z 0043ea80 f   mfc120ud:mfc120ud.dll
 0001:0003da86       ?get_accKeyboardShortcut@CWnd@@UAEJUtagVARIANT@@PAPA_W@Z 0043ea86 f   mfc120ud:mfc120ud.dll
 0001:0003da8c       ?get_accFocus@CWnd@@UAEJPAUtagVARIANT@@@Z 0043ea8c f   mfc120ud:mfc120ud.dll
 0001:0003da92       ?get_accSelection@CWnd@@UAEJPAUtagVARIANT@@@Z 0043ea92 f   mfc120ud:mfc120ud.dll
 0001:0003da98       ?get_accDefaultAction@CWnd@@UAEJUtagVARIANT@@PAPA_W@Z 0043ea98 f   mfc120ud:mfc120ud.dll
 0001:0003da9e       ?accSelect@CWnd@@UAEJJUtagVARIANT@@@Z 0043ea9e f   mfc120ud:mfc120ud.dll
 0001:0003daa4       ?accLocation@CWnd@@UAEJPAJ000UtagVARIANT@@@Z 0043eaa4 f   mfc120ud:mfc120ud.dll
 0001:0003daaa       ?accNavigate@CWnd@@UAEJJUtagVARIANT@@PAU2@@Z 0043eaaa f   mfc120ud:mfc120ud.dll
 0001:0003dab0       ?accHitTest@CWnd@@UAEJJJPAUtagVARIANT@@@Z 0043eab0 f   mfc120ud:mfc120ud.dll
 0001:0003dab6       ?accDoDefaultAction@CWnd@@UAEJUtagVARIANT@@@Z 0043eab6 f   mfc120ud:mfc120ud.dll
 0001:0003dabc       ?put_accName@CWnd@@UAEJUtagVARIANT@@PA_W@Z 0043eabc f   mfc120ud:mfc120ud.dll
 0001:0003dac2       ?put_accValue@CWnd@@UAEJUtagVARIANT@@PA_W@Z 0043eac2 f   mfc120ud:mfc120ud.dll
 0001:0003dac8       ?SetProxy@CWnd@@UAEJPAUIAccessibleProxy@@@Z 0043eac8 f   mfc120ud:mfc120ud.dll
 0001:0003dace       ?CreateAccessibleProxy@CWnd@@UAEJIJPAJ@Z 0043eace f   mfc120ud:mfc120ud.dll
 0001:0003dad4       ?OnCommand@CWnd@@MAEHIJ@Z  0043ead4 f   mfc120ud:mfc120ud.dll
 0001:0003dada       ?OnNotify@CWnd@@MAEHIJPAJ@Z 0043eada f   mfc120ud:mfc120ud.dll
 0001:0003dae0       ?GetSuperWndProcAddr@CWnd@@MAEPAP6GJPAUHWND__@@IIJ@ZXZ 0043eae0 f   mfc120ud:mfc120ud.dll
 0001:0003dae6       ?DoDataExchange@CWnd@@MAEXPAVCDataExchange@@@Z 0043eae6 f   mfc120ud:mfc120ud.dll
 0001:0003daec       ?BeginModalState@CWnd@@UAEXXZ 0043eaec f   mfc120ud:mfc120ud.dll
 0001:0003daf2       ?EndModalState@CWnd@@UAEXXZ 0043eaf2 f   mfc120ud:mfc120ud.dll
 0001:0003daf8       ?OnAmbientProperty@CWnd@@UAEHPAVCOleControlSite@@JPAUtagVARIANT@@@Z 0043eaf8 f   mfc120ud:mfc120ud.dll
 0001:0003dafe       ?WindowProc@CWnd@@MAEJIIJ@Z 0043eafe f   mfc120ud:mfc120ud.dll
 0001:0003db04       ?OnWndMsg@CWnd@@MAEHIIJPAJ@Z 0043eb04 f   mfc120ud:mfc120ud.dll
 0001:0003db0a       ?DefWindowProcW@CWnd@@MAEJIIJ@Z 0043eb0a f   mfc120ud:mfc120ud.dll
 0001:0003db10       ?PostNcDestroy@CWnd@@MAEXXZ 0043eb10 f   mfc120ud:mfc120ud.dll
 0001:0003db16       ?OnChildNotify@CWnd@@MAEHIIJPAJ@Z 0043eb16 f   mfc120ud:mfc120ud.dll
 0001:0003db1c       ?OnTouchInputs@CWnd@@MAEHIPAUtagTOUCHINPUT@@@Z 0043eb1c f   mfc120ud:mfc120ud.dll
 0001:0003db22       ?OnTouchInput@CWnd@@MAEHVCPoint@@HHPAUtagTOUCHINPUT@@@Z 0043eb22 f   mfc120ud:mfc120ud.dll
 0001:0003db28       ?GetGestureStatus@CWnd@@MAEKVCPoint@@@Z 0043eb28 f   mfc120ud:mfc120ud.dll
 0001:0003db2e       ?OnGestureZoom@CWnd@@MAEHVCPoint@@J@Z 0043eb2e f   mfc120ud:mfc120ud.dll
 0001:0003db34       ?OnGesturePan@CWnd@@MAEHVCPoint@@0@Z 0043eb34 f   mfc120ud:mfc120ud.dll
 0001:0003db3a       ?OnGestureRotate@CWnd@@MAEHVCPoint@@N@Z 0043eb3a f   mfc120ud:mfc120ud.dll
 0001:0003db40       ?OnGestureTwoFingerTap@CWnd@@MAEHVCPoint@@@Z 0043eb40 f   mfc120ud:mfc120ud.dll
 0001:0003db46       ?OnGesturePressAndTap@CWnd@@MAEHVCPoint@@J@Z 0043eb46 f   mfc120ud:mfc120ud.dll
 0001:0003db4c       ?IsFrameWnd@CWnd@@UBEHXZ   0043eb4c f   mfc120ud:mfc120ud.dll
 0001:0003db52       ?OnFinalRelease@CWnd@@UAEXXZ 0043eb52 f   mfc120ud:mfc120ud.dll
 0001:0003db58       ?CreateControlContainer@CWnd@@MAEHPAPAVCOleControlContainer@@@Z 0043eb58 f   mfc120ud:mfc120ud.dll
 0001:0003db5e       ?CreateControlSite@CWnd@@MAEHPAVCOleControlContainer@@PAPAVCOleControlSite@@IABU_GUID@@@Z 0043eb5e f   mfc120ud:mfc120ud.dll
 0001:0003db64       ?GetThisClass@CDialog@@SGPAUCRuntimeClass@@XZ 0043eb64 f   mfc120ud:mfc120ud.dll
 0001:0003db6a       ??0CDialog@@QAE@XZ         0043eb6a f   mfc120ud:mfc120ud.dll
 0001:0003db70       ?Create@CDialog@@UAEHPB_WPAVCWnd@@@Z 0043eb70 f   mfc120ud:mfc120ud.dll
 0001:0003db76       ?Create@CDialog@@UAEHIPAVCWnd@@@Z 0043eb76 f   mfc120ud:mfc120ud.dll
 0001:0003db7c       ?CreateIndirect@CDialog@@UAEHPBUDLGTEMPLATE@@PAVCWnd@@PAX@Z 0043eb7c f   mfc120ud:mfc120ud.dll
 0001:0003db82       ?CreateIndirect@CDialog@@UAEHPAXPAVCWnd@@@Z 0043eb82 f   mfc120ud:mfc120ud.dll
 0001:0003db88       ??0CDialog@@QAE@IPAVCWnd@@@Z 0043eb88 f   mfc120ud:mfc120ud.dll
 0001:0003db8e       ?DoModal@CDialog@@UAEHXZ   0043eb8e f   mfc120ud:mfc120ud.dll
 0001:0003db94       ?OnInitDialog@CDialog@@UAEHXZ 0043eb94 f   mfc120ud:mfc120ud.dll
 0001:0003db9a       ?OnSetFont@CDialog@@UAEXPAVCFont@@@Z 0043eb9a f   mfc120ud:mfc120ud.dll
 0001:0003dba0       ?OnOK@CDialog@@MAEXXZ      0043eba0 f   mfc120ud:mfc120ud.dll
 0001:0003dba6       ?OnCancel@CDialog@@MAEXXZ  0043eba6 f   mfc120ud:mfc120ud.dll
 0001:0003dbac       ??1CDialog@@UAE@XZ         0043ebac f   mfc120ud:mfc120ud.dll
 0001:0003dbb2       ?AssertValid@CDialog@@UBEXXZ 0043ebb2 f   mfc120ud:mfc120ud.dll
 0001:0003dbb8       ?Dump@CDialog@@UBEXAAVCDumpContext@@@Z 0043ebb8 f   mfc120ud:mfc120ud.dll
 0001:0003dbbe       ?PreTranslateMessage@CDialog@@UAEHPAUtagMSG@@@Z 0043ebbe f   mfc120ud:mfc120ud.dll
 0001:0003dbc4       ?OnCmdMsg@CDialog@@UAEHIHPAXPAUAFX_CMDHANDLERINFO@@@Z 0043ebc4 f   mfc120ud:mfc120ud.dll
 0001:0003dbca       ?CheckAutoCenter@CDialog@@UAEHXZ 0043ebca f   mfc120ud:mfc120ud.dll
 0001:0003dbd0       ?SetOccDialogInfo@CDialog@@MAEHPAU_AFX_OCC_DIALOG_INFO@@@Z 0043ebd0 f   mfc120ud:mfc120ud.dll
 0001:0003dbd6       ?GetOccDialogInfo@CDialog@@MAEPAU_AFX_OCC_DIALOG_INFO@@XZ 0043ebd6 f   mfc120ud:mfc120ud.dll
 0001:0003dbdc       ?PreInitDialog@CDialog@@MAEXXZ 0043ebdc f   mfc120ud:mfc120ud.dll
 0001:0003dbe2       ?OnPaint@CDialog@@IAEXXZ   0043ebe2 f   mfc120ud:mfc120ud.dll
 0001:0003dbe8       ?GetThisMessageMap@CDialog@@KGPBUAFX_MSGMAP@@XZ 0043ebe8 f   mfc120ud:mfc120ud.dll
 0001:0003dbee       ??0CStatic@@QAE@XZ         0043ebee f   mfc120ud:mfc120ud.dll
 0001:0003dbf4       ??1CStatic@@UAE@XZ         0043ebf4 f   mfc120ud:mfc120ud.dll
 0001:0003dbfa       ?AfxMessageBox@@YGHPB_WII@Z 0043ebfa f   mfc120ud:mfc120ud.dll
 0001:0003dc00       ?GetOFN@CFileDialog@@QAEAAUtagOFNW@@XZ 0043ec00 f   mfc120ud:mfc120ud.dll
 0001:0003dc06       ??0CFileDialog@@QAE@HPB_W0K0PAVCWnd@@KH@Z 0043ec06 f   mfc120ud:mfc120ud.dll
 0001:0003dc0c       ??1CFileDialog@@UAE@XZ     0043ec0c f   mfc120ud:mfc120ud.dll
 0001:0003dc12       ?DoModal@CFileDialog@@UAEHXZ 0043ec12 f   mfc120ud:mfc120ud.dll
 0001:0003dc18       ??_U@YAPAXI@Z              0043ec18 f   mfc120ud:mfc120ud.dll
 0001:0003dc1e       ??_V@YAXPAX@Z              0043ec1e f   mfc120ud:mfc120ud.dll
 0001:0003dc24       ??2@YAPAXI@Z               0043ec24 f   mfc120ud:mfc120ud.dll
 0001:0003dc2a       ?OnCmdMsg@CCmdTarget@@UAEHIHPAXPAUAFX_CMDHANDLERINFO@@@Z 0043ec2a f   mfc120ud:mfc120ud.dll
 0001:0003dc30       ?OnFinalRelease@CCmdTarget@@UAEXXZ 0043ec30 f   mfc120ud:mfc120ud.dll
 0001:0003dc36       ?GetInterfaceMap@CCmdTarget@@MBEPBUAFX_INTERFACEMAP@@XZ 0043ec36 f   mfc120ud:mfc120ud.dll
 0001:0003dc3c       ?PreTranslateMessage@CWinThread@@UAEHPAUtagMSG@@@Z 0043ec3c f   mfc120ud:mfc120ud.dll
 0001:0003dc42       ?PumpMessage@CWinThread@@UAEHXZ 0043ec42 f   mfc120ud:mfc120ud.dll
 0001:0003dc48       ?IsIdleMessage@CWinThread@@UAEHPAUtagMSG@@@Z 0043ec48 f   mfc120ud:mfc120ud.dll
 0001:0003dc4e       ?ProcessMessageFilter@CWinThread@@UAEHHPAUtagMSG@@@Z 0043ec4e f   mfc120ud:mfc120ud.dll
 0001:0003dc54       ?GetMainWnd@CWinThread@@UAEPAVCWnd@@XZ 0043ec54 f   mfc120ud:mfc120ud.dll
 0001:0003dc5a       ?Delete@CWinThread@@UAEXXZ 0043ec5a f   mfc120ud:mfc120ud.dll
 0001:0003dc60       ?GetRuntimeClass@CWinApp@@UBEPAUCRuntimeClass@@XZ 0043ec60 f   mfc120ud:mfc120ud.dll
 0001:0003dc66       ??0CWinApp@@QAE@PB_W@Z     0043ec66 f   mfc120ud:mfc120ud.dll
 0001:0003dc6c       ?SetRegistryKey@CWinApp@@IAEXPB_W@Z 0043ec6c f   mfc120ud:mfc120ud.dll
 0001:0003dc72       ?GetProfileIntW@CWinApp@@UAEIPB_W0H@Z 0043ec72 f   mfc120ud:mfc120ud.dll
 0001:0003dc78       ?WriteProfileInt@CWinApp@@UAEHPB_W0H@Z 0043ec78 f   mfc120ud:mfc120ud.dll
 0001:0003dc7e       ?GetProfileStringW@CWinApp@@UAE?AV?$CStringT@_WV?$StrTraitMFC_DLL@_WV?$ChTraitsCRT@_W@ATL@@@@@ATL@@PB_W00@Z 0043ec7e f   mfc120ud:mfc120ud.dll
 0001:0003dc84       ?WriteProfileStringW@CWinApp@@UAEHPB_W00@Z 0043ec84 f   mfc120ud:mfc120ud.dll
 0001:0003dc8a       ?GetProfileBinary@CWinApp@@UAEHPB_W0PAPAEPAI@Z 0043ec8a f   mfc120ud:mfc120ud.dll
 0001:0003dc90       ?WriteProfileBinary@CWinApp@@UAEHPB_W0PAEI@Z 0043ec90 f   mfc120ud:mfc120ud.dll
 0001:0003dc96       ?InitLibId@CWinApp@@UAEXXZ 0043ec96 f   mfc120ud:mfc120ud.dll
 0001:0003dc9c       ?Register@CWinApp@@UAEHXZ  0043ec9c f   mfc120ud:mfc120ud.dll
 0001:0003dca2       ?Unregister@CWinApp@@UAEHXZ 0043eca2 f   mfc120ud:mfc120ud.dll
 0001:0003dca8       ?OpenDocumentFile@CWinApp@@UAEPAVCDocument@@PB_W@Z 0043eca8 f   mfc120ud:mfc120ud.dll
 0001:0003dcae       ?OpenDocumentFile@CWinApp@@UAEPAVCDocument@@PB_WH@Z 0043ecae f   mfc120ud:mfc120ud.dll
 0001:0003dcb4       ?AddToRecentFileList@CWinApp@@UAEXPB_W@Z 0043ecb4 f   mfc120ud:mfc120ud.dll
 0001:0003dcba       ?InitApplication@CWinApp@@UAEHXZ 0043ecba f   mfc120ud:mfc120ud.dll
 0001:0003dcc0       ?SaveAllModified@CWinApp@@UAEHXZ 0043ecc0 f   mfc120ud:mfc120ud.dll
 0001:0003dcc6       ?DoMessageBox@CWinApp@@UAEHPB_WII@Z 0043ecc6 f   mfc120ud:mfc120ud.dll
 0001:0003dccc       ?DoWaitCursor@CWinApp@@UAEXH@Z 0043eccc f   mfc120ud:mfc120ud.dll
 0001:0003dcd2       ?OnDDECommand@CWinApp@@UAEHPA_W@Z 0043ecd2 f   mfc120ud:mfc120ud.dll
 0001:0003dcd8       ?WinHelpW@CWinApp@@UAEXKI@Z 0043ecd8 f   mfc120ud:mfc120ud.dll
 0001:0003dcde       ?HtmlHelpW@CWinApp@@UAEXKI@Z 0043ecde f   mfc120ud:mfc120ud.dll
 0001:0003dce4       ?WinHelpInternal@CWinApp@@UAEXKI@Z 0043ece4 f   mfc120ud:mfc120ud.dll
 0001:0003dcea       ?RegisterWithRestartManager@CWinApp@@UAEJHABV?$CStringT@_WV?$StrTraitMFC_DLL@_WV?$ChTraitsCRT@_W@ATL@@@@@ATL@@@Z 0043ecea f   mfc120ud:mfc120ud.dll
 0001:0003dcf0       ?RegisterWithRestartManager@CWinApp@@UAEJPB_WKP6GKPAX@Z1KK@Z 0043ecf0 f   mfc120ud:mfc120ud.dll
 0001:0003dcf6       ?ApplicationRecoveryCallback@CWinApp@@UAEKPAX@Z 0043ecf6 f   mfc120ud:mfc120ud.dll
 0001:0003dcfc       ?OnHelp@CWinApp@@IAEXXZ    0043ecfc f   mfc120ud:mfc120ud.dll
 0001:0003dd02       ?GetDataRecoveryHandler@CWinApp@@UAEPAVCDataRecoveryHandler@@XZ 0043ed02 f   mfc120ud:mfc120ud.dll
 0001:0003dd08       ?IsTaskbarInteractionEnabled@CWinApp@@UAEHXZ 0043ed08 f   mfc120ud:mfc120ud.dll
 0001:0003dd0e       ?InitInstance@CWinApp@@UAEHXZ 0043ed0e f   mfc120ud:mfc120ud.dll
 0001:0003dd14       ?ExitInstance@CWinApp@@UAEHXZ 0043ed14 f   mfc120ud:mfc120ud.dll
 0001:0003dd1a       ?RestartInstance@CWinApp@@UAEHXZ 0043ed1a f   mfc120ud:mfc120ud.dll
 0001:0003dd20       ?Run@CWinApp@@UAEHXZ       0043ed20 f   mfc120ud:mfc120ud.dll
 0001:0003dd26       ?OnIdle@CWinApp@@UAEHJ@Z   0043ed26 f   mfc120ud:mfc120ud.dll
 0001:0003dd2c       ?ProcessWndProcException@CWinApp@@UAEJPAVCException@@PBUtagMSG@@@Z 0043ed2c f   mfc120ud:mfc120ud.dll
 0001:0003dd32       ?LoadAppLangResourceDLL@CWinApp@@UAEPAUHINSTANCE__@@XZ 0043ed32 f   mfc120ud:mfc120ud.dll
 0001:0003dd38       ??1CWinApp@@UAE@XZ         0043ed38 f   mfc120ud:mfc120ud.dll
 0001:0003dd3e       ?AssertValid@CWinApp@@UBEXXZ 0043ed3e f   mfc120ud:mfc120ud.dll
 0001:0003dd44       ?Dump@CWinApp@@UBEXAAVCDumpContext@@@Z 0043ed44 f   mfc120ud:mfc120ud.dll
 0001:0003dd4a       ?GetThisMessageMap@CWinApp@@KGPBUAFX_MSGMAP@@XZ 0043ed4a f   mfc120ud:mfc120ud.dll
 0001:0003dd50       ?LoadSysPolicies@CWinApp@@UAEHXZ 0043ed50 f   mfc120ud:mfc120ud.dll
 0001:0003dd56       ?AfxEnableControlContainer@@YAXPAVCOccManager@@@Z 0043ed56 f   mfc120ud:mfc120ud.dll
 0001:0003dd5c       ??2CObject@@SGPAXIPBDH@Z   0043ed5c f   mfc120ud:mfc120ud.dll
 0001:0003dd62       ??3CObject@@SGXPAXPBDH@Z   0043ed62 f   mfc120ud:mfc120ud.dll
 0001:0003dd68       ?Format@?$CStringT@_WV?$StrTraitMFC_DLL@_WV?$ChTraitsCRT@_W@ATL@@@@@ATL@@QAAXPB_WZZ 0043ed68 f   mfc120ud:mfc120ud.dll
 0001:0003dd6e       ??2@YAPAXIPBDH@Z           0043ed6e f   mfc120ud:mfc120ud.dll
 0001:0003dd74       ??_U@YAPAXIPBDH@Z          0043ed74 f   mfc120ud:mfc120ud.dll
 0001:0003dd7a       ?DrawIcon@CDC@@QAEHHHPAUHICON__@@@Z 0043ed7a f   mfc120ud:mfc120ud.dll
 0001:0003dd80       ?SendMessageW@CWnd@@QBEJIIJ@Z 0043ed80 f   mfc120ud:mfc120ud.dll
 0001:0003dd86       ?IsIconic@CWnd@@QBEHXZ     0043ed86 f   mfc120ud:mfc120ud.dll
 0001:0003dd8c       ?GetClientRect@CWnd@@QBEXPAUtagRECT@@@Z 0043ed8c f   mfc120ud:mfc120ud.dll
 0001:0003dd92       ?ShowWindow@CWnd@@QAEHH@Z  0043ed92 f   mfc120ud:mfc120ud.dll
 0001:0003dd98       ?CenterWindow@CWnd@@QAEXPAV1@@Z 0043ed98 f   mfc120ud:mfc120ud.dll
 0001:0003dd9e       ?OnSysCommand@CWnd@@IAEXIJ@Z 0043ed9e f   mfc120ud:mfc120ud.dll
 0001:0003dda4       ?GetRuntimeClass@CDialog@@UBEPAUCRuntimeClass@@XZ 0043eda4 f   mfc120ud:mfc120ud.dll
 0001:0003ddaa       ?AfxGetApp@@YGPAVCWinApp@@XZ 0043edaa f   mfc120ud:mfc120ud.dll
 0001:0003ddb0       ?AfxGetMainWnd@@YGPAVCWnd@@XZ 0043edb0 f   mfc120ud:mfc120ud.dll
 0001:0003ddb6       ?LoadIconW@CWinApp@@QBEPAUHICON__@@I@Z 0043edb6 f   mfc120ud:mfc120ud.dll
 0001:0003ddbc       ?GetStartPosition@CFileDialog@@QBEPAU__POSITION@@XZ 0043edbc f   mfc120ud:mfc120ud.dll
 0001:0003ddc2       ?GetNextPathName@CFileDialog@@QBE?AV?$CStringT@_WV?$StrTraitMFC_DLL@_WV?$ChTraitsCRT@_W@ATL@@@@@ATL@@AAPAU__POSITION@@@Z 0043edc2 f   mfc120ud:mfc120ud.dll
 0001:0003ddd0       ??1CComBSTR@ATL@@QAE@XZ    0043edd0 f i mfcs120ud:nolib.obj
 0001:0003de10       ??1stringdispid@CComTypeInfoHolder@ATL@@QAE@XZ 0043ee10 f i mfcs120ud:nolib.obj
 0001:0003de40       ??_Estringdispid@CComTypeInfoHolder@ATL@@QAEPAXI@Z 0043ee40 f i mfcs120ud:nolib.obj
 0001:0003dec0       _IsolationAwareActivateActCtx@8 0043eec0 f i mfcs120ud:nolib.obj
 0001:0003df40       _IsolationAwareCreateActCtxW@4 0043ef40 f i mfcs120ud:nolib.obj
 0001:0003dfc0       _IsolationAwareDeactivateActCtx@8 0043efc0 f i mfcs120ud:nolib.obj
 0001:0003e040       _IsolationAwareFindActCtxSectionStringW@20 0043f040 f i mfcs120ud:nolib.obj
 0001:0003e0d0       _IsolationAwarePrivatenPgViNgRzlnPgpgk@4 0043f0d0 f i mfcs120ud:nolib.obj
 0001:0003e1b0       _IsolationAwarePrivatezltRgCebPnQQeRff@12 0043f1b0 f i mfcs120ud:nolib.obj
 0001:0003e240       _IsolationAwarePrivatezltRgzbQhYRuNaQYRJ@4 0043f240 f i mfcs120ud:nolib.obj
 0001:0003e270       _IsolationAwarePrivatezltRgzbQhYRuNaQYRn@4 0043f270 f i mfcs120ud:nolib.obj
 0001:0003e2a0       _IsolationAwareQueryActCtxW@28 0043f2a0 f i mfcs120ud:nolib.obj
 0001:0003e330       _IsolationAwareUnregisterClassW@8 0043f330 f i mfcs120ud:nolib.obj
 0001:0003e4c0       _WinbaseIsolationAwarePrivatetRgCebPnQQeRff_xReaRYQP_QYY@4 0043f4c0 f i mfcs120ud:nolib.obj
 0001:0003e4f0       _WinbaseIsolationAwarePrivatetRgzlnPgpgk@0 0043f4f0 f i mfcs120ud:nolib.obj
 0001:0003e930       _NtCurrentTeb              0043f930 f i msvcrtd:wcrtexew.obj
 0001:0003ec90       _wWinMainCRTStartup        0043fc90 f   msvcrtd:wcrtexew.obj
 0001:0003eca0       ___atonexitinit            0043fca0 f   msvcrtd:atonexit.obj
 0001:0003ed50       __onexit                   0043fd50 f   msvcrtd:atonexit.obj
 0001:0003ee50       _atexit                    0043fe50 f   msvcrtd:atonexit.obj
 0001:0003ee7c       _memcmp                    0043fe7c f   msvcrtd:MSVCR120D.dll
 0001:0003ee82       _memcpy                    0043fe82 f   msvcrtd:MSVCR120D.dll
 0001:0003ee88       _memcpy_s                  0043fe88 f   msvcrtd:MSVCR120D.dll
 0001:0003ee8e       _memset                    0043fe8e f   msvcrtd:MSVCR120D.dll
 0001:0003ee94       _wcscpy_s                  0043fe94 f   msvcrtd:MSVCR120D.dll
 0001:0003ee9a       _wcslen                    0043fe9a f   msvcrtd:MSVCR120D.dll
 0001:0003eea0       _swprintf_s                0043fea0 f   msvcrtd:MSVCR120D.dll
 0001:0003eea6       __vsnwprintf_s             0043fea6 f   msvcrtd:MSVCR120D.dll
 0001:0003eeac       __vscwprintf               0043feac f   msvcrtd:MSVCR120D.dll
 0001:0003eeb2       _abs                       0043feb2 f   msvcrtd:MSVCR120D.dll
 0001:0003eeb8       _labs                      0043feb8 f   msvcrtd:MSVCR120D.dll
 0001:0003eebe       _free                      0043febe f   msvcrtd:MSVCR120D.dll
 0001:0003eec4       _malloc                    0043fec4 f   msvcrtd:MSVCR120D.dll
 0001:0003eeca       __resetstkoflw             0043feca f   msvcrtd:MSVCR120D.dll
 0001:0003eed0       __CrtDbgReportW            0043fed0 f   msvcrtd:MSVCR120D.dll
 0001:0003eee0       @_RTC_AllocaHelper@12      0043fee0 f   msvcrtd:stack.obj
 0001:0003ef20       @_RTC_CheckStackVars2@12   0043ff20 f   msvcrtd:stack.obj
 0001:0003f000       @_RTC_CheckStackVars@8     00440000 f   msvcrtd:stack.obj
 0001:0003f060       __RTC_CheckEsp             00440060 f   msvcrtd:stack.obj
 0001:0003f090       @__security_check_cookie@4 00440090 f   msvcrtd:secchk.obj
 0001:0003f0a0       __RTC_InitBase             004400a0 f   msvcrtd:init.obj
 0001:0003f0d0       __RTC_Shutdown             004400d0 f   msvcrtd:init.obj
 0001:0003f0e4       ___CxxFrameHandler3        004400e4 f   msvcrtd:MSVCR120D.dll
 0001:0003f0f0       __alloca_probe_16          004400f0 f   msvcrtd:alloca16.obj
 0001:0003f106       __alloca_probe_8           00440106     msvcrtd:alloca16.obj
 0001:0003f120       __except_handler4          00440120 f   msvcrtd:chandler4gs.obj
 0001:0003f150       ??0type_info@@AAE@ABV0@@Z  00440150 f   msvcrtd:ti_inst.obj
 0001:0003f170       ??4type_info@@AAEAAV0@ABV0@@Z 00440170 f   msvcrtd:ti_inst.obj
 0001:0003f180       ??_Etype_info@@UAEPAXI@Z   00440180 f i msvcrtd:ti_inst.obj
 0001:0003f1f0       __invalid_parameter        004401f0 f   msvcrtd:MSVCR120D.dll
 0001:0003f1f6       _rand                      004401f6 f   msvcrtd:MSVCR120D.dll
 0001:0003f1fc       _srand                     004401fc f   msvcrtd:MSVCR120D.dll
 0001:0003f202       __time64                   00440202 f   msvcrtd:MSVCR120D.dll
 0001:0003f208       _atan                      00440208 f   msvcrtd:MSVCR120D.dll
 0001:0003f20e       _exp                       0044020e f   msvcrtd:MSVCR120D.dll
 0001:0003f214       _fabs                      00440214 f   msvcrtd:MSVCR120D.dll
 0001:0003f21a       _log                       0044021a f   msvcrtd:MSVCR120D.dll
 0001:0003f220       _sqrt                      00440220 f   msvcrtd:MSVCR120D.dll
 0001:0003f226       __CxxThrowException@8      00440226 f   msvcrtd:MSVCR120D.dll
 0001:0003f22c       _calloc                    0044022c f   msvcrtd:MSVCR120D.dll
 0001:0003f232       __recalloc                 00440232 f   msvcrtd:MSVCR120D.dll
 0001:0003f238       __getcwd                   00440238 f   msvcrtd:MSVCR120D.dll
 0001:0003f240       ??_M@YGXPAXIHP6EX0@Z@Z     00440240 f   msvcrtd:ehvecdtr.obj
 0001:0003f320       ?__ArrayUnwind@@YGXPAXIHP6EX0@Z@Z 00440320 f   msvcrtd:ehvecdtr.obj
 0001:0003f3b0       ?__CxxUnhandledExceptionFilter@@YGJPAU_EXCEPTION_POINTERS@@@Z 004403b0 f   msvcrtd:unhandld.obj
 0001:0003f420       ___CxxSetUnhandledExceptionFilter 00440420 f   msvcrtd:unhandld.obj
 0001:0003f434       __XcptFilter               00440434 f   msvcrtd:MSVCR120D.dll
 0001:0003f43a       ___crtGetShowWindowMode    0044043a f   msvcrtd:MSVCR120D.dll
 0001:0003f440       __amsg_exit                00440440 f   msvcrtd:MSVCR120D.dll
 0001:0003f450       __wsetargv                 00440450 f   msvcrtd:wdllargv.obj
 0001:0003f458       ___wgetmainargs            00440458 f   msvcrtd:MSVCR120D.dll
 0001:0003f45e       ___set_app_type            0044045e f   msvcrtd:MSVCR120D.dll
 0001:0003f464       __CrtSetCheckCount         00440464 f   msvcrtd:MSVCR120D.dll
 0001:0003f470       __FindPESection            00440470 f   msvcrtd:pesect.obj
 0001:0003f4f0       __IsNonwritableInCurrentImage 004404f0 f   msvcrtd:pesect.obj
 0001:0003f620       __ValidateImageBase        00440620 f   msvcrtd:pesect.obj
 0001:0003f67e       _exit                      0044067e f   msvcrtd:MSVCR120D.dll
 0001:0003f684       __exit                     00440684 f   msvcrtd:MSVCR120D.dll
 0001:0003f68a       __cexit                    0044068a f   msvcrtd:MSVCR120D.dll
 0001:0003f690       ___security_init_cookie    00440690 f   msvcrtd:gs_support.obj
 0001:0003f770       __matherr                  00440770 f   msvcrtd:merr.obj
 0001:0003f780       __RTC_Initialize           00440780 f   msvcrtd:initsect.obj
 0001:0003f7b0       __RTC_Terminate            004407b0 f   msvcrtd:initsect.obj
 0001:0003f7d6       __configthreadlocale       004407d6 f   msvcrtd:MSVCR120D.dll
 0001:0003f7e0       __invoke_watson_if_error   004407e0 f i msvcrtd:fp8.obj
 0001:0003f810       __setdefaultprecision      00440810 f   msvcrtd:fp8.obj
 0001:0003f846       ___setusermatherr          00440846 f   msvcrtd:MSVCR120D.dll
 0001:0003f84c       __initterm_e               0044084c f   msvcrtd:MSVCR120D.dll
 0001:0003f852       __initterm                 00440852 f   msvcrtd:MSVCR120D.dll
 0001:0003f858       __lock                     00440858 f   msvcrtd:MSVCR120D.dll
 0001:0003f85e       __unlock                   0044085e f   msvcrtd:MSVCR120D.dll
 0001:0003f864       __calloc_dbg               00440864 f   msvcrtd:MSVCR120D.dll
 0001:0003f86a       ___dllonexit               0044086a f   msvcrtd:MSVCR120D.dll
 0001:0003f9c0       ?_RTC_AllocaFailure@@YAXPAXPAU_RTC_ALLOCA_NODE@@H@Z 004409c0 f   msvcrtd:error.obj
 0001:0003fb40       ?_RTC_Failure@@YAXPAXH@Z   00440b40 f   msvcrtd:error.obj
 0001:0003fb90       ?_RTC_StackFailure@@YAXPAXPBD@Z 00440b90 f   msvcrtd:error.obj
 0001:0003ff10       __RTC_UninitUse            00440f10 f   msvcrtd:error.obj
 0001:00040000       ___raise_securityfailure   00441000 f   msvcrtd:gs_report.obj
 0001:00040050       ___report_gsfailure        00441050 f   msvcrtd:gs_report.obj
 0001:00040160       ___report_rangecheckfailure 00441160 f   msvcrtd:gs_report.obj
 0001:00040170       ___report_securityfailure  00441170 f   msvcrtd:gs_report.obj
 0001:00040250       ___report_securityfailureEx 00441250 f   msvcrtd:gs_report.obj
 0001:00040380       ?_RTC_GetErrorFunc@@YAP6AHHPBDH00ZZPBX@Z 00441380 f   msvcrtd:userapi.obj
 0001:00040390       ?_RTC_GetErrorFuncW@@YAP6AHHPB_WH00ZZPBX@Z 00441390 f   msvcrtd:userapi.obj
 0001:000403a0       __RTC_GetErrDesc           004413a0 f   msvcrtd:userapi.obj
 0001:000403c0       __RTC_NumErrors            004413c0 f   msvcrtd:userapi.obj
 0001:000403d0       __RTC_SetErrorFunc         004413d0 f   msvcrtd:userapi.obj
 0001:000403f0       __RTC_SetErrorFuncW        004413f0 f   msvcrtd:userapi.obj
 0001:00040410       __RTC_SetErrorType         00441410 f   msvcrtd:userapi.obj
 0001:00040434       __CRT_RTC_INITW            00441434 f   msvcrtd:MSVCR120D.dll
 0001:00040440       __chkstk                   00441440 f   msvcrtd:chkstk.obj
 0001:00040440       __alloca_probe             00441440 f   msvcrtd:chkstk.obj
 0001:0004046c       __except_handler4_common   0044146c f   msvcrtd:MSVCR120D.dll
 0001:00040472       ??1type_info@@UAE@XZ       00441472 f   msvcrtd:MSVCR120D.dll
 0001:00040478       ?terminate@@YAXXZ          00441478 f   msvcrtd:MSVCR120D.dll
 0001:0004047e       ___crtSetUnhandledExceptionFilter 0044147e f   msvcrtd:MSVCR120D.dll
 0001:00040484       __invoke_watson            00441484 f   msvcrtd:MSVCR120D.dll
 0001:0004048a       __controlfp_s              0044148a f   msvcrtd:MSVCR120D.dll
 0001:000408d0       ?_RTC_GetSrcLine@@YAHPAEPA_WKPAH1K@Z 004418d0 f   msvcrtd:pdblkup.obj
 0001:00040b7e       __crt_debugger_hook        00441b7e f   msvcrtd:MSVCR120D.dll
 0001:00040b84       ___crtUnhandledException   00441b84 f   msvcrtd:MSVCR120D.dll
 0001:00040b8a       ___crtTerminateProcess     00441b8a f   msvcrtd:MSVCR120D.dll
 0001:00040b90       __wmakepath_s              00441b90 f   msvcrtd:MSVCR120D.dll
 0001:00040b96       __wsplitpath_s             00441b96 f   msvcrtd:MSVCR120D.dll
 0001:00040b9c       _GetLastError@0            00441b9c f   kernel32:KERNEL32.dll
 0001:00040ba2       _EnterCriticalSection@4    00441ba2 f   kernel32:KERNEL32.dll
 0001:00040ba8       _LeaveCriticalSection@4    00441ba8 f   kernel32:KERNEL32.dll
 0001:00040bae       _InitializeCriticalSectionEx@12 00441bae f   kernel32:KERNEL32.dll
 0001:00040bb4       _DeleteCriticalSection@4   00441bb4 f   kernel32:KERNEL32.dll
 0001:00040bba       _GetTickCount@0            00441bba f   kernel32:KERNEL32.dll
 0001:00040bc0       _DecodePointer@4           00441bc0 f   kernel32:KERNEL32.dll
 0001:00040bc6       _RaiseException@16         00441bc6 f   kernel32:KERNEL32.dll
 0001:00040bcc       _HeapDestroy@4             00441bcc f   kernel32:KERNEL32.dll
 0001:00040bd2       _HeapAlloc@12              00441bd2 f   kernel32:KERNEL32.dll
 0001:00040bd8       _HeapReAlloc@16            00441bd8 f   kernel32:KERNEL32.dll
 0001:00040bde       _HeapFree@12               00441bde f   kernel32:KERNEL32.dll
 0001:00040be4       _HeapSize@12               00441be4 f   kernel32:KERNEL32.dll
 0001:00040bea       _GetProcessHeap@0          00441bea f   kernel32:KERNEL32.dll
 0001:00040bf0       _OutputDebugStringA@4      00441bf0 f   kernel32:KERNEL32.dll
 0001:00040bf6       _SetLastError@4            00441bf6 f   kernel32:KERNEL32.dll
 0001:00040bfc       _InitializeCriticalSectionAndSpinCount@8 00441bfc f   kernel32:KERNEL32.dll
 0001:00040c02       _GetModuleFileNameW@12     00441c02 f   kernel32:KERNEL32.dll
 0001:00040c08       _GetModuleHandleA@4        00441c08 f   kernel32:KERNEL32.dll
 0001:00040c0e       _GetModuleHandleW@4        00441c0e f   kernel32:KERNEL32.dll
 0001:00040c14       _GetProcAddress@8          00441c14 f   kernel32:KERNEL32.dll
 0001:00040c1a       _LoadLibraryW@4            00441c1a f   kernel32:KERNEL32.dll
 0001:00040c20       _EncodePointer@4           00441c20 f   kernel32:KERNEL32.dll
 0001:00040c26       _QueryPerformanceCounter@4 00441c26 f   kernel32:KERNEL32.dll
 0001:00040c2c       _GetCurrentProcessId@0     00441c2c f   kernel32:KERNEL32.dll
 0001:00040c32       _GetCurrentThreadId@0      00441c32 f   kernel32:KERNEL32.dll
 0001:00040c38       _GetSystemTimeAsFileTime@4 00441c38 f   kernel32:KERNEL32.dll
 0001:00040c3e       _IsDebuggerPresent@0       00441c3e f   kernel32:KERNEL32.dll
 0001:00040c44       _LoadLibraryExW@12         00441c44 f   kernel32:KERNEL32.dll
 0001:00040c4a       _MultiByteToWideChar@24    00441c4a f   kernel32:KERNEL32.dll
 0001:00040c50       _WideCharToMultiByte@32    00441c50 f   kernel32:KERNEL32.dll
 0001:00040c56       _IsProcessorFeaturePresent@4 00441c56 f   kernel32:KERNEL32.dll
 0001:00040c5c       _VirtualQuery@12           00441c5c f   kernel32:KERNEL32.dll
 0001:00040c62       _FreeLibrary@4             00441c62 f   kernel32:KERNEL32.dll
 0001:00040c68       _GetSystemMetrics@4        00441c68 f   user32:USER32.dll
 0001:00040c6e       _UnregisterClassW@8        00441c6e f   user32:USER32.dll
 0001:00040c74       _CreateCompatibleDC@4      00441c74 f   gdi32:GDI32.dll
 0001:00040c7a       _DeleteDC@4                00441c7a f   gdi32:GDI32.dll
 0001:00040c80       _DeleteObject@4            00441c80 f   gdi32:GDI32.dll
 0001:00040c86       _SelectObject@8            00441c86 f   gdi32:GDI32.dll
 0001:00040c8c       _StretchBlt@44             00441c8c f   gdi32:GDI32.dll
 0001:00040c92       _SetStretchBltMode@8       00441c92 f   gdi32:GDI32.dll
 0001:00040c98       _CreateDIBSection@24       00441c98 f   gdi32:GDI32.dll
 0001:00040c9e       _GetDIBColorTable@16       00441c9e f   gdi32:GDI32.dll
 0001:00040ca4       _SetDIBColorTable@16       00441ca4 f   gdi32:GDI32.dll
 0001:00040caa       _GetObjectW@12             00441caa f   gdi32:GDI32.dll
 0001:00040cb0       _SetBrushOrgEx@16          00441cb0 f   gdi32:GDI32.dll
 0001:00040cb6       _InitCommonControlsEx@4    00441cb6 f   comctl32:COMCTL32.dll
 0001:00040cbc       _PathFindExtensionW@4      00441cbc f   shlwapi:SHLWAPI.dll
 0001:00040cc2       ??$?2PAUHINSTANCE__@@@Wrapper@?$CSimpleArray@PAUHINSTANCE__@@V?$CSimpleArrayEqualHelper@PAUHINSTANCE__@@@ATL@@@ATL@@SAPAXIPAPAUHINSTANCE__@@@Z 00441cc2 f i atls:atlbase.obj
 0001:00040cca       ??0?$CComCritSecLock@VCComCriticalSection@ATL@@@ATL@@QAE@AAVCComCriticalSection@1@_N@Z 00441cca f i atls:atlbase.obj
 0001:00040cf1       ??0?$CSimpleArray@PAUHINSTANCE__@@V?$CSimpleArrayEqualHelper@PAUHINSTANCE__@@@ATL@@@ATL@@QAE@XZ 00441cf1 f i atls:atlbase.obj
 0001:00040cfe       ??0CAtlBaseModule@ATL@@QAE@XZ 00441cfe f   atls:atlbase.obj
 0001:00040d51       ??0Wrapper@?$CSimpleArray@PAUHINSTANCE__@@V?$CSimpleArrayEqualHelper@PAUHINSTANCE__@@@ATL@@@ATL@@QAE@ABQAUHINSTANCE__@@@Z 00441d51 f i atls:atlbase.obj
 0001:00040d61       ??0_ATL_BASE_MODULE70@ATL@@QAE@XZ 00441d61 f i atls:atlbase.obj
 0001:00040d84       ??1?$CComCritSecLock@VCComCriticalSection@ATL@@@ATL@@QAE@XZ 00441d84 f i atls:atlbase.obj
 0001:00040d9b       ??1?$CSimpleArray@PAUHINSTANCE__@@V?$CSimpleArrayEqualHelper@PAUHINSTANCE__@@@ATL@@@ATL@@QAE@XZ 00441d9b f i atls:atlbase.obj
 0001:00040da0       ??1CAtlBaseModule@ATL@@QAE@XZ 00441da0 f   atls:atlbase.obj
 0001:00040db6       ??1_ATL_BASE_MODULE70@ATL@@QAE@XZ 00441db6 f i atls:atlbase.obj
 0001:00040dbe       ??A?$CSimpleArray@PAUHINSTANCE__@@V?$CSimpleArrayEqualHelper@PAUHINSTANCE__@@@ATL@@@ATL@@QAEAAPAUHINSTANCE__@@H@Z 00441dbe f i atls:atlbase.obj
 0001:00040de8       ?Add@?$CSimpleArray@PAUHINSTANCE__@@V?$CSimpleArrayEqualHelper@PAUHINSTANCE__@@@ATL@@@ATL@@QAEHABQAUHINSTANCE__@@@Z 00441de8 f i atls:atlbase.obj
 0001:00040e60       ?AddResourceInstance@CAtlBaseModule@ATL@@QAE_NPAUHINSTANCE__@@@Z 00441e60 f   atls:atlbase.obj
 0001:00040e93       ?AtlCrtErrorCheck@ATL@@YAHH@Z 00441e93 f i atls:atlbase.obj
 0001:00040ece       ?GetHInstanceAt@CAtlBaseModule@ATL@@QAEPAUHINSTANCE__@@H@Z 00441ece f   atls:atlbase.obj
 0001:00040f13       ?GetSize@?$CSimpleArray@PAUHINSTANCE__@@V?$CSimpleArrayEqualHelper@PAUHINSTANCE__@@@ATL@@@ATL@@QBEHXZ 00441f13 f i atls:atlbase.obj
 0001:00040f17       ?InternalSetAtIndex@?$CSimpleArray@PAUHINSTANCE__@@V?$CSimpleArrayEqualHelper@PAUHINSTANCE__@@@ATL@@@ATL@@QAEXHABQAUHINSTANCE__@@@Z 00441f17 f i atls:atlbase.obj
 0001:00040f31       ?Lock@?$CComCritSecLock@VCComCriticalSection@ATL@@@ATL@@QAEJXZ 00441f31 f i atls:atlbase.obj
 0001:00040f44       ?Lock@CComCriticalSection@ATL@@QAEJXZ 00441f44 f i atls:atlbase.obj
 0001:00040f4e       ?RemoveAll@?$CSimpleArray@PAUHINSTANCE__@@V?$CSimpleArrayEqualHelper@PAUHINSTANCE__@@@ATL@@@ATL@@QAEXXZ 00441f4e f i atls:atlbase.obj
 0001:00040f6b       ?RemoveAt@?$CSimpleArray@PAUHINSTANCE__@@V?$CSimpleArrayEqualHelper@PAUHINSTANCE__@@@ATL@@@ATL@@QAEHH@Z 00441f6b f i atls:atlbase.obj
 0001:00040fb3       ?RemoveResourceInstance@CAtlBaseModule@ATL@@QAE_NPAUHINSTANCE__@@@Z 00441fb3 f   atls:atlbase.obj
 0001:00041012       ?Unlock@?$CComCritSecLock@VCComCriticalSection@ATL@@@ATL@@QAEXXZ 00442012 f i atls:atlbase.obj
 0001:00041023       ?Unlock@CComCriticalSection@ATL@@QAEJXZ 00442023 f i atls:atlbase.obj
 0001:0004102d       ?memmove_s@Checked@ATL@@YAXPAXIPBXI@Z 0044202d f i atls:atlbase.obj
 0001:0004104c       ??_I@YGXPAXIHP6EX0@Z@Z     0044204c f i atls:stdafx.obj
 0001:00041072       _SysFreeString@4           00442072 f   oleaut32:OLEAUT32.dll
 0001:00041078       _GdipAlloc@4               00442078 f   gdiplus:gdiplus.dll
 0001:0004107e       _GdipFree@4                0044207e f   gdiplus:gdiplus.dll
 0001:00041084       _GdiplusStartup@12         00442084 f   gdiplus:gdiplus.dll
 0001:0004108a       _GdiplusShutdown@4         0044208a f   gdiplus:gdiplus.dll
 0001:00041090       _GdipCloneImage@8          00442090 f   gdiplus:gdiplus.dll
 0001:00041096       _GdipDisposeImage@4        00442096 f   gdiplus:gdiplus.dll
 0001:0004109c       _GdipSaveImageToFile@16    0044209c f   gdiplus:gdiplus.dll
 0001:000410a2       _GdipCreateBitmapFromScan0@24 004420a2 f   gdiplus:gdiplus.dll
 0001:000410a8       _GdipCreateBitmapFromHBITMAP@12 004420a8 f   gdiplus:gdiplus.dll
 0001:000410ae       _GdipGetImageEncodersSize@8 004420ae f   gdiplus:gdiplus.dll
 0001:000410b4       _GdipGetImageEncoders@12   004420b4 f   gdiplus:gdiplus.dll
 0001:000410ba       _GdipGetImageGraphicsContext@8 004420ba f   gdiplus:gdiplus.dll
 0001:000410c0       _GdipGetImageWidth@8       004420c0 f   gdiplus:gdiplus.dll
 0001:000410c6       _GdipGetImageHeight@8      004420c6 f   gdiplus:gdiplus.dll
 0001:000410cc       _GdipGetImagePixelFormat@8 004420cc f   gdiplus:gdiplus.dll
 0001:000410d2       _GdipGetImagePalette@12    004420d2 f   gdiplus:gdiplus.dll
 0001:000410d8       _GdipGetImagePaletteSize@8 004420d8 f   gdiplus:gdiplus.dll
 0001:000410de       _GdipCreateBitmapFromFile@8 004420de f   gdiplus:gdiplus.dll
 0001:000410e4       _GdipCreateBitmapFromFileICM@8 004420e4 f   gdiplus:gdiplus.dll
 0001:000410ea       _GdipBitmapLockBits@20     004420ea f   gdiplus:gdiplus.dll
 0001:000410f0       _GdipBitmapUnlockBits@8    004420f0 f   gdiplus:gdiplus.dll
 0001:000410f6       _GdipDeleteGraphics@4      004420f6 f   gdiplus:gdiplus.dll
 0001:000410fc       _GdipDrawImageI@16         004420fc f   gdiplus:gdiplus.dll
 0001:00041102       ??0_Lockit@std@@QAE@H@Z    00442102 f   msvcprtd:MSVCP120D.dll
 0001:00041108       ??1_Lockit@std@@QAE@XZ     00442108 f   msvcprtd:MSVCP120D.dll
 0001:0004110e       ?_Debug_message@std@@YAXPB_W0I@Z 0044210e f   msvcprtd:MSVCP120D.dll
 0001:00041114       ??0_Container_base12@std@@QAE@XZ 00442114 f   msvcprtd:MSVCP120D.dll
 0001:0004111a       ??1_Container_base12@std@@QAE@XZ 0044211a f   msvcprtd:MSVCP120D.dll
 0001:00041120       ?_Getpfirst@_Container_base12@std@@QBEPAPAU_Iterator_base12@2@XZ 00442120 f   msvcprtd:MSVCP120D.dll
 0001:00041126       ?_Orphan_all@_Container_base12@std@@QAEXXZ 00442126 f   msvcprtd:MSVCP120D.dll
 0001:0004112c       ?_Xbad_alloc@std@@YAXXZ    0044212c f   msvcprtd:MSVCP120D.dll
 0001:00041132       ?_Xlength_error@std@@YAXPBD@Z 00442132 f   msvcprtd:MSVCP120D.dll
 0001:00041140       ?AfxInitialize@@YGHHK@Z    00442140 f   mfcs120ud:appmodul.obj
 0001:000411a0       _wWinMain@16               004421a0 f   mfcs120ud:appmodul.obj
 0001:000411c4       _memmove_s                 004421c4 f   msvcrtd:MSVCR120D.dll
 0001:000411ca       _OutputDebugStringW@4      004421ca f   kernel32:KERNEL32.dll
 0001:000411d0       ?AfxAssertFailedLine@@YGHPBDH@Z 004421d0 f   mfc120ud:mfc120ud.dll
 0001:000411d6       ?AfxGetModuleState@@YGPAVAFX_MODULE_STATE@@XZ 004421d6 f   mfc120ud:mfc120ud.dll
 0001:000411dc       ?AfxWinMain@@YGHPAUHINSTANCE__@@0PA_WH@Z 004421dc f   mfc120ud:mfc120ud.dll
 0001:00046100       ??__Fcache@?1??GetCDCCacheInstance@CImage@ATL@@CAPAVCDCCache@12@XZ@YAXXZ 00447100 f i AftRegDlg.obj
 0001:00046120       ??__FgdiPlus@?1??GetInitGDIPlusInstance@CImage@ATL@@CAPAVCInitGDIPlus@12@XZ@YAXXZ 00447120 f i AftRegDlg.obj
 0001:00046220       ??__FstrHeap@?1??GetInstance@CAtlStringMgr@ATL@@SAPAUIAtlStringMgr@2@XZ@YAXXZ 00447220 f i stdafx.obj
 0001:00046240       ??__FstrMgr@?1??GetInstance@CAtlStringMgr@ATL@@SAPAUIAtlStringMgr@2@XZ@YAXXZ 00447240 f i stdafx.obj
 0002:00000000       ___xc_a                    00449000     msvcrtd:cinitexe.obj
 0002:000004d0       ___xc_z                    004494d0     msvcrtd:cinitexe.obj
 0002:000005d4       ___xi_a                    004495d4     msvcrtd:cinitexe.obj
 0002:000009e4       ___xi_z                    004499e4     msvcrtd:cinitexe.obj
 0002:00000b28       ?classAftRegDlg@AftRegDlg@@2UCRuntimeClass@@B 00449b28     AftRegDlg.obj
 0002:00000cb0       ??_C@_13COJANIEC@?$AA0?$AA?$AA@ 00449cb0     AftRegDlg.obj
 0002:00000cb4       ??_C@_15GANGMFKL@?$AA?$CF?$AAs?$AA?$AA@ 00449cb4     AftRegDlg.obj
 0002:00000cc0       ??_C@_1KC@PNGFPIAM@?$AAC?$AA?3?$AA?2?$AAP?$AAr?$AAo?$AAg?$AAr?$AAa?$AAm?$AA?5?$AAF?$AAi?$AAl?$AAe?$AAs?$AA?5?$AA?$CI?$AAx?$AA8?$AA6?$AA?$CJ?$AA?2?$AAM?$AAi?$AAc?$AAr?$AAo?$AAs?$AAo?$AAf?$AAt@ 00449cc0     AftRegDlg.obj
 0002:00000d84       ??_C@_1M@PLLAHAGD@?$AA?$CF?$AAs?$AA?5?$AA?9?$AA?5?$AA?$AA@ 00449d84     AftRegDlg.obj
 0002:00000d94       ??_C@_1M@PGKOAACE@?$AA?$CF?$AAu?$AA?5?$AA?9?$AA?5?$AA?$AA@ 00449d94     AftRegDlg.obj
 0002:00000da4       ??_C@_19LJDFFCJJ@?$AA?$CF?$AAs?$AA?$CF?$AAs?$AA?$AA@ 00449da4     AftRegDlg.obj
 0002:00000db0       ??_C@_15MAOEGKJF@?$AA?$CF?$AAS?$AA?$AA@ 00449db0     AftRegDlg.obj
 0002:00000db8       ??_C@_1EO@EBPPKGOM@?$AAf?$AAa?$AAl?$AAs?$AAe?$AA?5?$AA?$CG?$AA?$CG?$AA?5?$AA?$CC?$AAT?$AAo?$AAo?$AA?5?$AAm?$AAa?$AAn?$AAy?$AA?5?$AAc?$AAa?$AAt?$AAe?$AAg?$AAo?$AAr?$AAi?$AAe?$AAs?$AA?5?$AAd?$AAe@ 00449db8     AftRegDlg.obj
 0002:00000e18       ??_C@_1KC@IOMOJKIP@?$AAC?$AA?3?$AA?2?$AAP?$AAr?$AAo?$AAg?$AAr?$AAa?$AAm?$AA?5?$AAF?$AAi?$AAl?$AAe?$AAs?$AA?5?$AA?$CI?$AAx?$AA8?$AA6?$AA?$CJ?$AA?2?$AAM?$AAi?$AAc?$AAr?$AAo?$AAs?$AAo?$AAf?$AAt@ 00449e18     AftRegDlg.obj
 0002:00000ee0       ??_C@_0FC@JFCKFAGD@C?3?2Program?5Files?5?$CIx86?$CJ?2Microsoft@ 00449ee0     AftRegDlg.obj
 0002:00000f44       ??_C@_1CK@DFMKPFAK@?$AAA?$AAt?$AAl?$AAT?$AAh?$AAr?$AAo?$AAw?$AA?3?$AA?5?$AAh?$AAr?$AA?5?$AA?$DN?$AA?5?$AA0?$AAx?$AA?$CF?$AAx?$AA?6?$AA?$AA@ 00449f44     AftRegDlg.obj
 0002:00000f78       ??_C@_1BM@GBBOFEAE@?$AA_?$AA_?$AAa?$AAt?$AAl?$AA_?$AAc?$AAo?$AAn?$AAd?$AAV?$AAa?$AAl?$AA?$AA@ 00449f78     AftRegDlg.obj
 0002:00000f9c       ??_C@_1BK@NHECDDNK@?$AAm?$AA_?$AAp?$AAD?$AAa?$AAt?$AAa?$AA?5?$AA?$DN?$AA?$DN?$AA?5?$AA0?$AA?$AA@ 00449f9c     AftRegDlg.obj
 0002:00000fc0       ??_7Image@Gdiplus@@6B@     00449fc0     AftRegDlg.obj
 0002:00000fd0       ??_7Bitmap@Gdiplus@@6B@    00449fd0     AftRegDlg.obj
 0002:00000fe0       ??_7CImage@ATL@@6B@        00449fe0     AftRegDlg.obj
 0002:00000fe8       ??_C@_1BO@FPAPNJH@?$AAm?$AA_?$AAh?$AAB?$AAi?$AAt?$AAm?$AAa?$AAp?$AA?5?$AA?$DN?$AA?$DN?$AA?5?$AA0?$AA?$AA@ 00449fe8     AftRegDlg.obj
 0002:00001010       ??_C@_1KC@FIGOMOKI@?$AAC?$AA?3?$AA?2?$AAP?$AAr?$AAo?$AAg?$AAr?$AAa?$AAm?$AA?5?$AAF?$AAi?$AAl?$AAe?$AAs?$AA?5?$AA?$CI?$AAx?$AA8?$AA6?$AA?$CJ?$AA?2?$AAM?$AAi?$AAc?$AAr?$AAo?$AAs?$AAo?$AAf?$AAt@ 0044a010     AftRegDlg.obj
 0002:000010d4       ??_C@_1BK@OEIAGODJ@?$AAh?$AAB?$AAi?$AAt?$AAm?$AAa?$AAp?$AA?5?$AA?$CB?$AA?$DN?$AA?5?$AA0?$AA?$AA@ 0044a0d4     AftRegDlg.obj
 0002:000010f4       ??_C@_1BO@DIGCJMPB@?$AAm?$AA_?$AAh?$AAB?$AAi?$AAt?$AAm?$AAa?$AAp?$AA?5?$AA?$CB?$AA?$DN?$AA?5?$AA0?$AA?$AA@ 0044a0f4     AftRegDlg.obj
 0002:00001118       ??_C@_1FK@DGBDPDJC@?$AA?$CI?$AAe?$AAC?$AAo?$AAm?$AAp?$AAr?$AAe?$AAs?$AAs?$AAi?$AAo?$AAn?$AA?5?$AA?$DN?$AA?$DN?$AA?5?$AA0?$AAL?$AA?$CJ?$AA?5?$AA?$HM?$AA?$HM?$AA?5?$AA?$CI?$AAe?$AAC?$AAo?$AAm?$AAp?$AAr?$AAe@ 0044a118     AftRegDlg.obj
 0002:00001188       ??_C@_1EK@DBKJJCBD@?$AA?$CI?$AAn?$AAB?$AAP?$AAP?$AA?5?$AA?$DN?$AA?$DN?$AA?5?$AA3?$AA2?$AA?$CJ?$AA?5?$AA?$CG?$AA?$CG?$AA?5?$AA?$CI?$AAe?$AAC?$AAo?$AAm?$AAp?$AAr?$AAe?$AAs?$AAs?$AAi?$AAo?$AAn?$AA?5?$AA?$DN?$AA?$DN@ 0044a188     AftRegDlg.obj
 0002:000011e0       ??_C@_1CG@FEPGENGG@?$AAe?$AAC?$AAo?$AAm?$AAp?$AAr?$AAe?$AAs?$AAs?$AAi?$AAo?$AAn?$AA?5?$AA?$DN?$AA?$DN?$AA?5?$AA0?$AAL?$AA?$AA@ 0044a1e0     AftRegDlg.obj
 0002:00001210       ??_C@_1CE@FGAHNDKN@?$AAp?$AAd?$AAw?$AAB?$AAi?$AAt?$AAf?$AAi?$AAe?$AAl?$AAd?$AAs?$AA?5?$AA?$CB?$AA?$DN?$AA?5?$AA0?$AA?$AA@ 0044a210     AftRegDlg.obj
 0002:0000123c       ??_C@_1BG@BFBCDCIJ@?$AAm?$AA_?$AAh?$AAD?$AAC?$AA?5?$AA?$DN?$AA?$DN?$AA?5?$AA0?$AA?$AA@ 0044a23c     AftRegDlg.obj
 0002:00001258       ??_C@_1BO@CCJGHGOM@?$AAI?$AAs?$AAD?$AAI?$AAB?$AAS?$AAe?$AAc?$AAt?$AAi?$AAo?$AAn?$AA?$CI?$AA?$CJ?$AA?$AA@ 0044a258     AftRegDlg.obj
 0002:0000127c       ??_C@_1BK@POHOJJKE@?$AAm?$AA_?$AAp?$AAB?$AAi?$AAt?$AAs?$AA?5?$AA?$CB?$AA?$DN?$AA?5?$AA0?$AA?$AA@ 0044a27c     AftRegDlg.obj
 0002:0000129c       ??_C@_1BI@FKNEIGBJ@?$AAI?$AAs?$AAI?$AAn?$AAd?$AAe?$AAx?$AAe?$AAd?$AA?$CI?$AA?$CJ?$AA?$AA@ 0044a29c     AftRegDlg.obj
 0002:000012b8       ??_C@_13PJJBFPED@?$AA?$DL?$AA?$AA@ 0044a2b8     AftRegDlg.obj
 0002:000012bc       ??_C@_1BG@CIIAFDOP@?$AAm?$AA_?$AAh?$AAD?$AAC?$AA?5?$AA?$CB?$AA?$DN?$AA?5?$AA0?$AA?$AA@ 0044a2bc     AftRegDlg.obj
 0002:000012d8       ??_C@_1CK@PJAJJCOE@?$AAh?$AAB?$AAi?$AAt?$AAm?$AAa?$AAp?$AA?5?$AA?$DN?$AA?$DN?$AA?5?$AAm?$AA_?$AAh?$AAB?$AAi?$AAt?$AAm?$AAa?$AAp?$AA?$AA@ 0044a2d8     AftRegDlg.obj
 0002:0000130c       ??_C@_1BK@OIGJJLCM@?$AAm?$AA_?$AAn?$AAB?$AAP?$AAP?$AA?5?$AA?$DN?$AA?$DN?$AA?5?$AA3?$AA2?$AA?$AA@ 0044a30c     AftRegDlg.obj
 0002:0000132c       ??_C@_1DG@OLMOJPIN@?$AAn?$AAB?$AAy?$AAt?$AAe?$AAs?$AA?5?$AA?$DN?$AA?$DN?$AA?5?$AAs?$AAi?$AAz?$AAe?$AAo?$AAf?$AA?$CI?$AA?5?$AAB?$AAI?$AAT?$AAM?$AAA?$AAP?$AA?5?$AA?$CJ?$AA?$AA@ 0044a32c     AftRegDlg.obj
 0002:00001370       ??_7AftRegDlg@@6B@         0044a370     AftRegDlg.obj
 0002:00001624       ??_7CDWT@@6B@              0044a624     DWT.obj
 0002:0000162c       __real@3de978d5            0044a62c     DWT.obj
 0002:00001630       __real@3e991687            0044a630     DWT.obj
 0002:00001634       __real@3f1645a2            0044a634     DWT.obj
 0002:00001638       __real@3fb4fdf4            0044a638     DWT.obj
 0002:0000163c       __real@40000000            0044a63c     DWT.obj
 0002:00001640       __real@437f0000            0044a640     DWT.obj
 0002:00001708       ??_C@_1JA@EADLBAJ@?$AAC?$AA?3?$AA?2?$AAP?$AAr?$AAo?$AAg?$AAr?$AAa?$AAm?$AA?5?$AAF?$AAi?$AAl?$AAe?$AAs?$AA?5?$AA?$CI?$AAx?$AA8?$AA6?$AA?$CJ?$AA?2?$AAM?$AAi?$AAc?$AAr?$AAo?$AAs?$AAo?$AAf?$AAt@ 0044a708     HarrisCorners.obj
 0002:000017b4       ??_C@_1DC@POOIKBAO@?$AAI?$AAT?$AAE?$AAR?$AAA?$AAT?$AAO?$AAR?$AA?5?$AAL?$AAI?$AAS?$AAT?$AA?5?$AAC?$AAO?$AAR?$AAR?$AAU?$AAP?$AAT?$AAE?$AAD?$AA?$CB?$AA?$AA@ 0044a7b4     HarrisCorners.obj
 0002:000017f0       ??_C@_1II@KCNBAEMF@?$AAC?$AA?3?$AA?2?$AAP?$AAr?$AAo?$AAg?$AAr?$AAa?$AAm?$AA?5?$AAF?$AAi?$AAl?$AAe?$AAs?$AA?5?$AA?$CI?$AAx?$AA8?$AA6?$AA?$CJ?$AA?2?$AAM?$AAi?$AAc?$AAr?$AAo?$AAs?$AAo?$AAf?$AAt@ 0044a7f0     HarrisCorners.obj
 0002:00001898       ??_C@_1EE@BBMFLDOC@?$AAl?$AAi?$AAs?$AAt?$AA?5?$AAe?$AAr?$AAa?$AAs?$AAe?$AA?5?$AAi?$AAt?$AAe?$AAr?$AAa?$AAt?$AAo?$AAr?$AA?5?$AAo?$AAu?$AAt?$AAs?$AAi?$AAd?$AAe?$AA?5?$AAr?$AAa?$AAn?$AAg@ 0044a898     HarrisCorners.obj
 0002:000018ec       ??_C@_1DI@MDELDGPI@?$AAl?$AAi?$AAs?$AAt?$AA?5?$AAi?$AAt?$AAe?$AAr?$AAa?$AAt?$AAo?$AAr?$AAs?$AA?5?$AAi?$AAn?$AAc?$AAo?$AAm?$AAp?$AAa?$AAt?$AAi?$AAb?$AAl?$AAe?$AA?$AA@ 0044a8ec     HarrisCorners.obj
 0002:00001930       ??_C@_0CI@FNPHFCCM@Standard?5C?$CL?$CL?5Libraries?5Invalid?5A@ 0044a930     HarrisCorners.obj
 0002:00001960       ??_C@_1FO@GJIHNDLM@?$AA?$CC?$AAS?$AAt?$AAa?$AAn?$AAd?$AAa?$AAr?$AAd?$AA?5?$AAC?$AA?$CL?$AA?$CL?$AA?5?$AAL?$AAi?$AAb?$AAr?$AAa?$AAr?$AAi?$AAe?$AAs?$AA?5?$AAI?$AAn?$AAv?$AAa?$AAl?$AAi?$AAd?$AA?5@ 0044a960     HarrisCorners.obj
 0002:000019d0       ??_C@_1NK@OHDLAPBP@?$AAs?$AAt?$AAd?$AA?3?$AA?3?$AA_?$AAL?$AAi?$AAs?$AAt?$AA_?$AAc?$AAo?$AAn?$AAs?$AAt?$AA_?$AAi?$AAt?$AAe?$AAr?$AAa?$AAt?$AAo?$AAr?$AA?$DM?$AAc?$AAl?$AAa?$AAs?$AAs?$AA?5@ 0044a9d0     HarrisCorners.obj
 0002:00001ad8       ??_C@_1CG@JNLFBNGN@?$AA?$CC?$AAi?$AAn?$AAv?$AAa?$AAl?$AAi?$AAd?$AA?5?$AAa?$AAr?$AAg?$AAu?$AAm?$AAe?$AAn?$AAt?$AA?$CC?$AA?$AA@ 0044aad8     HarrisCorners.obj
 0002:00001b08       ??_C@_1NM@BGJHLJKI@?$AAs?$AAt?$AAd?$AA?3?$AA?3?$AA_?$AAL?$AAi?$AAs?$AAt?$AA_?$AAc?$AAo?$AAn?$AAs?$AAt?$AA_?$AAi?$AAt?$AAe?$AAr?$AAa?$AAt?$AAo?$AAr?$AA?$DM?$AAc?$AAl?$AAa?$AAs?$AAs?$AA?5@ 0044ab08     HarrisCorners.obj
 0002:00001c10       ??_C@_1NO@BGGAAIMA@?$AAs?$AAt?$AAd?$AA?3?$AA?3?$AA_?$AAL?$AAi?$AAs?$AAt?$AA_?$AAc?$AAo?$AAn?$AAs?$AAt?$AA_?$AAi?$AAt?$AAe?$AAr?$AAa?$AAt?$AAo?$AAr?$AA?$DM?$AAc?$AAl?$AAa?$AAs?$AAs?$AA?5@ 0044ac10     HarrisCorners.obj
 0002:00001d20       ??_C@_1NI@FAEGEHBI@?$AAs?$AAt?$AAd?$AA?3?$AA?3?$AA_?$AAL?$AAi?$AAs?$AAt?$AA_?$AAc?$AAo?$AAn?$AAs?$AAt?$AA_?$AAi?$AAt?$AAe?$AAr?$AAa?$AAt?$AAo?$AAr?$AA?$DM?$AAc?$AAl?$AAa?$AAs?$AAs?$AA?5@ 0044ad20     HarrisCorners.obj
 0002:00001e28       ??_C@_1EC@HILJLMMC@?$AAl?$AAi?$AAs?$AAt?$AA?5?$AAi?$AAt?$AAe?$AAr?$AAa?$AAt?$AAo?$AAr?$AA?5?$AAn?$AAo?$AAt?$AA?5?$AAd?$AAe?$AAr?$AAe?$AAf?$AAe?$AAr?$AAe?$AAn?$AAc?$AAa?$AAb?$AAl?$AAe@ 0044ae28     HarrisCorners.obj
 0002:00001e78       ??_C@_0CE@OFMIGAMM@Standard?5C?$CL?$CL?5Libraries?5Out?5of?5Ra@ 0044ae78     HarrisCorners.obj
 0002:00001ea8       ??_C@_1FG@IBPIFFN@?$AA?$CC?$AAS?$AAt?$AAa?$AAn?$AAd?$AAa?$AAr?$AAd?$AA?5?$AAC?$AA?$CL?$AA?$CL?$AA?5?$AAL?$AAi?$AAb?$AAr?$AAa?$AAr?$AAi?$AAe?$AAs?$AA?5?$AAO?$AAu?$AAt?$AA?5?$AAo?$AAf?$AA?5?$AAR@ 0044aea8     HarrisCorners.obj
 0002:00001f10       ??_C@_1NI@FGLLOOIP@?$AAs?$AAt?$AAd?$AA?3?$AA?3?$AA_?$AAL?$AAi?$AAs?$AAt?$AA_?$AAc?$AAo?$AAn?$AAs?$AAt?$AA_?$AAi?$AAt?$AAe?$AAr?$AAa?$AAt?$AAo?$AAr?$AA?$DM?$AAc?$AAl?$AAa?$AAs?$AAs?$AA?5@ 0044af10     HarrisCorners.obj
 0002:00002014       ??_C@_1BO@MEPPHOO@?$AA?$CC?$AAo?$AAu?$AAt?$AA?5?$AAo?$AAf?$AA?5?$AAr?$AAa?$AAn?$AAg?$AAe?$AA?$CC?$AA?$AA@ 0044b014     HarrisCorners.obj
 0002:00002038       ??_C@_1EA@DOGAGKDH@?$AAl?$AAi?$AAs?$AAt?$AA?5?$AAi?$AAt?$AAe?$AAr?$AAa?$AAt?$AAo?$AAr?$AA?5?$AAn?$AAo?$AAt?$AA?5?$AAi?$AAn?$AAc?$AAr?$AAe?$AAm?$AAe?$AAn?$AAt?$AAa?$AAb?$AAl?$AAe?$AA?$AA@ 0044b038     HarrisCorners.obj
 0002:00002088       ??_C@_1NK@EHMGOGNK@?$AAs?$AAt?$AAd?$AA?3?$AA?3?$AA_?$AAL?$AAi?$AAs?$AAt?$AA_?$AAc?$AAo?$AAn?$AAs?$AAt?$AA_?$AAi?$AAt?$AAe?$AAr?$AAa?$AAt?$AAo?$AAr?$AA?$DM?$AAc?$AAl?$AAa?$AAs?$AAs?$AA?5@ 0044b088     HarrisCorners.obj
 0002:00002190       ??_C@_1NK@FIHJNMH@?$AAs?$AAt?$AAd?$AA?3?$AA?3?$AA_?$AAL?$AAi?$AAs?$AAt?$AA_?$AAc?$AAo?$AAn?$AAs?$AAt?$AA_?$AAi?$AAt?$AAe?$AAr?$AAa?$AAt?$AAo?$AAr?$AA?$DM?$AAc?$AAl?$AAa?$AAs?$AAs?$AA?5@ 0044b190     HarrisCorners.obj
 0002:00002298       ??_C@_1NM@LGGKFAGN@?$AAs?$AAt?$AAd?$AA?3?$AA?3?$AA_?$AAL?$AAi?$AAs?$AAt?$AA_?$AAc?$AAo?$AAn?$AAs?$AAt?$AA_?$AAi?$AAt?$AAe?$AAr?$AAa?$AAt?$AAo?$AAr?$AA?$DM?$AAc?$AAl?$AAa?$AAs?$AAs?$AA?5@ 0044b298     HarrisCorners.obj
 0002:000023a0       ??_C@_1NM@NGLIMAFD@?$AAs?$AAt?$AAd?$AA?3?$AA?3?$AA_?$AAL?$AAi?$AAs?$AAt?$AA_?$AAc?$AAo?$AAn?$AAs?$AAt?$AA_?$AAi?$AAt?$AAe?$AAr?$AAa?$AAt?$AAo?$AAr?$AA?$DM?$AAc?$AAl?$AAa?$AAs?$AAs?$AA?5@ 0044b3a0     HarrisCorners.obj
 0002:000024a8       ??_C@_1NO@LGJNOBAF@?$AAs?$AAt?$AAd?$AA?3?$AA?3?$AA_?$AAL?$AAi?$AAs?$AAt?$AA_?$AAc?$AAo?$AAn?$AAs?$AAt?$AA_?$AAi?$AAt?$AAe?$AAr?$AAa?$AAt?$AAo?$AAr?$AA?$DM?$AAc?$AAl?$AAa?$AAs?$AAs?$AA?5@ 0044b4a8     HarrisCorners.obj
 0002:000025b8       ??_C@_1NG@PIOLDNPA@?$AAs?$AAt?$AAd?$AA?3?$AA?3?$AA_?$AAL?$AAi?$AAs?$AAt?$AA_?$AAc?$AAo?$AAn?$AAs?$AAt?$AA_?$AAi?$AAt?$AAe?$AAr?$AAa?$AAt?$AAo?$AAr?$AA?$DM?$AAc?$AAl?$AAa?$AAs?$AAs?$AA?5@ 0044b5b8     HarrisCorners.obj
 0002:000026b8       ??_C@_1NI@PALLKONN@?$AAs?$AAt?$AAd?$AA?3?$AA?3?$AA_?$AAL?$AAi?$AAs?$AAt?$AA_?$AAc?$AAo?$AAn?$AAs?$AAt?$AA_?$AAi?$AAt?$AAe?$AAr?$AAa?$AAt?$AAo?$AAr?$AA?$DM?$AAc?$AAl?$AAa?$AAs?$AAs?$AA?5@ 0044b6b8     HarrisCorners.obj
 0002:000027bc       ??_C@_0BB@MOGOBHAF@list?$DMT?$DO?5too?5long?$AA@ 0044b7bc     HarrisCorners.obj
 0002:000027d0       __real@00000000            0044b7d0     HarrisCorners.obj
 0002:000027d4       __real@358637bd            0044b7d4     HarrisCorners.obj
 0002:000027d8       __real@3c23d70a            0044b7d8     HarrisCorners.obj
 0002:000027dc       __real@3dcccccd            0044b7dc     HarrisCorners.obj
 0002:000027e0       __real@3e93f7cf            0044b7e0     HarrisCorners.obj
 0002:000027e4       __real@3eaaaaaa            0044b7e4     HarrisCorners.obj
 0002:000027e8       __real@3ec7ae14            0044b7e8     HarrisCorners.obj
 0002:000027ec       __real@3edf3b64            0044b7ec     HarrisCorners.obj
 0002:000027f0       __real@3f000000            0044b7f0     HarrisCorners.obj
 0002:000027f4       __real@3f03d70a            0044b7f4     HarrisCorners.obj
 0002:000027f8       __real@3f147ae1            0044b7f8     HarrisCorners.obj
 0002:000027fc       __real@3f1d70a4            0044b7fc     HarrisCorners.obj
 0002:00002800       __real@3f2aaaab            0044b800     HarrisCorners.obj
 0002:00002804       __real@3f333333            0044b804     HarrisCorners.obj
 0002:00002808       __real@3f4ccccd            0044b808     HarrisCorners.obj
 0002:0000280c       __real@3f59999a            0044b80c     HarrisCorners.obj
 0002:00002810       __real@3f733333            0044b810     HarrisCorners.obj
 0002:00002814       __real@3f7d70a4            0044b814     HarrisCorners.obj
 0002:00002818       __real@3f800000            0044b818     HarrisCorners.obj
 0002:0000281c       __real@3f91eb85            0044b81c     HarrisCorners.obj
 0002:00002820       __real@3fc00000            0044b820     HarrisCorners.obj
 0002:00002828       __real@3fe8000000000000    0044b828     HarrisCorners.obj
 0002:00002838       __real@3ff0000000000000    0044b838     HarrisCorners.obj
 0002:00002844       __real@4001eb85            0044b844     HarrisCorners.obj
 0002:00002848       __real@40400000            0044b848     HarrisCorners.obj
 0002:0000284c       __real@40490fda            0044b84c     HarrisCorners.obj
 0002:00002850       __real@40800000            0044b850     HarrisCorners.obj
 0002:00002854       __real@40a00000            0044b854     HarrisCorners.obj
 0002:00002858       __real@40c00000            0044b858     HarrisCorners.obj
 0002:0000285c       __real@41000000            0044b85c     HarrisCorners.obj
 0002:00002860       __real@41200000            0044b860     HarrisCorners.obj
 0002:00002864       __real@41c80000            0044b864     HarrisCorners.obj
 0002:00002868       __real@41f00000            0044b868     HarrisCorners.obj
 0002:0000286c       __real@42700000            0044b86c     HarrisCorners.obj
 0002:00002870       __real@42c80000            0044b870     HarrisCorners.obj
 0002:00002874       __real@42f00000            0044b874     HarrisCorners.obj
 0002:00002878       __real@43700000            0044b878     HarrisCorners.obj
 0002:0000287c       __real@43b40000            0044b87c     HarrisCorners.obj
 0002:00002880       __real@461c4000            0044b880     HarrisCorners.obj
 0002:00002884       __real@be16872b            0044b884     HarrisCorners.obj
 0002:00002888       __real@bf800000            0044b888     HarrisCorners.obj
 0002:0000288c       __real@c0000000            0044b88c     HarrisCorners.obj
 0002:00002890       __xmm@80000000800000008000000080000000 0044b890     HarrisCorners.obj
 0002:0000295c       ??_7CImageMosaicApp@@6B@   0044b95c     ImageMosaic.obj
 0002:00002e40       ??_C@_1KA@DNNOBAJI@?$AAC?$AA?3?$AA?2?$AAP?$AAr?$AAo?$AAg?$AAr?$AAa?$AAm?$AA?5?$AAF?$AAi?$AAl?$AAe?$AAs?$AA?5?$AA?$CI?$AAx?$AA8?$AA6?$AA?$CJ?$AA?2?$AAM?$AAi?$AAc?$AAr?$AAo?$AAs?$AAo?$AAf?$AAt@ 0044be40     ImageMosaicDlg.obj
 0002:00002f04       ??_7CImageMosaicDlg@@6B@   0044bf04     ImageMosaicDlg.obj
 0002:000030e8       ??_7CAboutDlg@@6B@         0044c0e8     ImageMosaicDlg.obj
 0002:000033c8       ??_C@_1BG@BIBDKHJJ@?$AAm?$AA_?$AAp?$AAs?$AAz?$AA?5?$AA?$CB?$AA?$DN?$AA?5?$AA0?$AA?$AA@ 0044c3c8     ImageMosaicDlg.obj
 0002:000033e8       ??_C@_1BHM@EBBEDJOB@?$AAs?$AAt?$AAd?$AA?3?$AA?3?$AA_?$AAL?$AAi?$AAs?$AAt?$AA_?$AAc?$AAo?$AAn?$AAs?$AAt?$AA_?$AAi?$AAt?$AAe?$AAr?$AAa?$AAt?$AAo?$AAr?$AA?$DM?$AAc?$AAl?$AAa?$AAs?$AAs?$AA?5@ 0044c3e8     ImageMosaicDlg.obj
 0002:000035b0       ??_C@_1BHO@EPCBJOO@?$AAs?$AAt?$AAd?$AA?3?$AA?3?$AA_?$AAL?$AAi?$AAs?$AAt?$AA_?$AAc?$AAo?$AAn?$AAs?$AAt?$AA_?$AAi?$AAt?$AAe?$AAr?$AAa?$AAt?$AAo?$AAr?$AA?$DM?$AAc?$AAl?$AAa?$AAs?$AAs?$AA?5@ 0044c5b0     ImageMosaicDlg.obj
 0002:00003780       ??_C@_1BHO@KEAPPACL@?$AAs?$AAt?$AAd?$AA?3?$AA?3?$AA_?$AAL?$AAi?$AAs?$AAt?$AA_?$AAc?$AAo?$AAn?$AAs?$AAt?$AA_?$AAi?$AAt?$AAe?$AAr?$AAa?$AAt?$AAo?$AAr?$AA?$DM?$AAc?$AAl?$AAa?$AAs?$AAs?$AA?5@ 0044c780     ImageMosaicDlg.obj
 0002:0000394c       __real@447a0000            0044c94c     ImageMosaicDlg.obj
 0002:00003950       __xmm@41f00000000000000000000000000000 0044c950     ImageMosaicDlg.obj
 0002:00005390       _IID_IAxWinHostWindow      0044e390     stdafx.obj
 0002:000053a4       ?szInvalidDateTime@ATL@@3QB_WB 0044e3a4     stdafx.obj
 0002:000053a8       ?szInvalidDateTimeSpan@ATL@@3QB_WB 0044e3a8     stdafx.obj
 0002:000053ac       _IID_IAxWinHostWindowLic   0044e3ac     stdafx.obj
 0002:000053c0       ?rgszNeverDelete@CRegParser@ATL@@1QBQB_WB 0044e3c0     stdafx.obj
 0002:000053fc       ?cbNeverDelete@CRegParser@ATL@@1HB 0044e3fc     stdafx.obj
 0002:00005400       _IID_IAxWinAmbientDispatch 0044e400     stdafx.obj
 0002:00005414       ?pmField@?$CVarTypeInfo@D@ATL@@2QQtagVARIANT@@DQ3@ 0044e414     stdafx.obj
 0002:00005418       ?pmField@?$CVarTypeInfo@E@ATL@@2QQtagVARIANT@@EQ3@ 0044e418     stdafx.obj
 0002:0000541c       ?pmField@?$CVarTypeInfo@PAD@ATL@@2QQtagVARIANT@@PADQ3@ 0044e41c     stdafx.obj
 0002:00005420       ?pmField@?$CVarTypeInfo@PAE@ATL@@2QQtagVARIANT@@PAEQ3@ 0044e420     stdafx.obj
 0002:00005424       ?pmField@?$CVarTypeInfo@F@ATL@@2QQtagVARIANT@@FQ3@ 0044e424     stdafx.obj
 0002:00005428       ?pmField@?$CVarTypeInfo@PAF@ATL@@2QQtagVARIANT@@PAFQ3@ 0044e428     stdafx.obj
 0002:00005430       ?OLE_DATETIME_HALFSECOND@COleDateTimeSpan@ATL@@2NB 0044e430     stdafx.obj
 0002:0000543c       ?pmField@?$CVarTypeInfo@G@ATL@@2QQtagVARIANT@@GQ3@ 0044e43c     stdafx.obj
 0002:00005440       _IID_IAxWinAmbientDispatchEx 0044e440     stdafx.obj
 0002:00005454       ?pmField@?$CVarTypeInfo@PAG@ATL@@2QQtagVARIANT@@PAGQ3@ 0044e454     stdafx.obj
 0002:00005458       ?CLSID_WinFormsControl@@3U_GUID@@B 0044e458     stdafx.obj
 0002:0000546c       ?pmField@?$CVarTypeInfo@H@ATL@@2QQtagVARIANT@@HQ3@ 0044e46c     stdafx.obj
 0002:00005470       _IID_IInternalConnection   0044e470     stdafx.obj
 0002:00005484       ?pmField@?$CVarTypeInfo@PAH@ATL@@2QQtagVARIANT@@PAHQ3@ 0044e484     stdafx.obj
 0002:00005488       ?pmField@?$CVarTypeInfo@I@ATL@@2QQtagVARIANT@@IQ3@ 0044e488     stdafx.obj
 0002:0000548c       ?pmField@?$CVarTypeInfo@PAI@ATL@@2QQtagVARIANT@@PAIQ3@ 0044e48c     stdafx.obj
 0002:00005490       ?pmField@?$CVarTypeInfo@J@ATL@@2QQtagVARIANT@@JQ3@ 0044e490     stdafx.obj
 0002:00005494       ?pmField@?$CVarTypeInfo@PAJ@ATL@@2QQtagVARIANT@@PAJQ3@ 0044e494     stdafx.obj
 0002:00005498       _LIBID_ATLLib              0044e498     stdafx.obj
 0002:000054ac       ?pmField@?$CVarTypeInfo@K@ATL@@2QQtagVARIANT@@KQ3@ 0044e4ac     stdafx.obj
 0002:000054b0       ?pmField@?$CVarTypeInfo@PAK@ATL@@2QQtagVARIANT@@PAKQ3@ 0044e4b0     stdafx.obj
 0002:000054b4       ?pmField@?$CVarTypeInfo@_J@ATL@@2QQtagVARIANT@@_JQ3@ 0044e4b4     stdafx.obj
 0002:000054b8       ?pmField@?$CVarTypeInfo@PA_J@ATL@@2QQtagVARIANT@@PA_JQ3@ 0044e4b8     stdafx.obj
 0002:000054bc       ?pmField@?$CVarTypeInfo@_K@ATL@@2QQtagVARIANT@@_KQ3@ 0044e4bc     stdafx.obj
 0002:000054c0       ?pmField@?$CVarTypeInfo@PA_K@ATL@@2QQtagVARIANT@@PA_KQ3@ 0044e4c0     stdafx.obj
 0002:000054c4       ?pmField@?$CVarTypeInfo@M@ATL@@2QQtagVARIANT@@MQ3@ 0044e4c4     stdafx.obj
 0002:000054c8       ?pmField@?$CVarTypeInfo@PAM@ATL@@2QQtagVARIANT@@PAMQ3@ 0044e4c8     stdafx.obj
 0002:000054cc       ?pmField@?$CVarTypeInfo@N@ATL@@2QQtagVARIANT@@NQ3@ 0044e4cc     stdafx.obj
 0002:000054d0       ?pmField@?$CVarTypeInfo@PAN@ATL@@2QQtagVARIANT@@PANQ3@ 0044e4d0     stdafx.obj
 0002:000054d4       ?pmField@?$CVarTypeInfo@PA_W@ATL@@2QQtagVARIANT@@PA_WQ3@ 0044e4d4     stdafx.obj
 0002:000054d8       _CLSID_Registrar           0044e4d8     stdafx.obj
 0002:000054ec       ?pmField@?$CVarTypeInfo@PAPA_W@ATL@@2QQtagVARIANT@@PAPA_WQ3@ 0044e4ec     stdafx.obj
 0002:000054f0       ?pmField@?$CVarTypeInfo@PAUIUnknown@@@ATL@@2QQtagVARIANT@@PAUIUnknown@@Q3@ 0044e4f0     stdafx.obj
 0002:000054f4       _IID_IRegistrar            0044e4f4     stdafx.obj
 0002:00005508       ?pmField@?$CVarTypeInfo@PAPAUIUnknown@@@ATL@@2QQtagVARIANT@@PAPAUIUnknown@@Q3@ 0044e508     stdafx.obj
 0002:0000550c       ?pmField@?$CVarTypeInfo@PAUIDispatch@@@ATL@@2QQtagVARIANT@@PAUIDispatch@@Q3@ 0044e50c     stdafx.obj
 0002:00005510       ?pmField@?$CVarTypeInfo@PAPAUIDispatch@@@ATL@@2QQtagVARIANT@@PAPAUIDispatch@@Q3@ 0044e510     stdafx.obj
 0002:00005514       ?pmField@?$CVarTypeInfo@TtagCY@@@ATL@@2QQtagVARIANT@@TtagCY@@Q3@ 0044e514     stdafx.obj
 0002:00005518       ?pmField@?$CVarTypeInfo@PATtagCY@@@ATL@@2QQtagVARIANT@@PATtagCY@@Q3@ 0044e518     stdafx.obj
 0002:0000551c       _IID_IDocHostUIHandlerDispatch 0044e51c     stdafx.obj
 0002:00005530       ?chDirSep@ATL@@3_WB        0044e530     stdafx.obj
 0002:00005534       ?chRightBracket@ATL@@3_WB  0044e534     stdafx.obj
 0002:00005538       ?chLeftBracket@ATL@@3_WB   0044e538     stdafx.obj
 0002:0000553c       ?chQuote@ATL@@3_WB         0044e53c     stdafx.obj
 0002:00005540       ?chEquals@ATL@@3_WB        0044e540     stdafx.obj
 0002:00005544       ?szStringVal@ATL@@3QB_WB   0044e544     stdafx.obj
 0002:00005548       ?multiszStringVal@ATL@@3QB_WB 0044e548     stdafx.obj
 0002:0000554c       ?szDwordVal@ATL@@3QB_WB    0044e54c     stdafx.obj
 0002:00005550       ?szBinaryVal@ATL@@3QB_WB   0044e550     stdafx.obj
 0002:00005554       ?szValToken@ATL@@3QB_WB    0044e554     stdafx.obj
 0002:00005558       ?szForceRemove@ATL@@3QB_WB 0044e558     stdafx.obj
 0002:0000555c       ?szNoRemove@ATL@@3QB_WB    0044e55c     stdafx.obj
 0002:00005560       ?szDelete@ATL@@3QB_WB      0044e560     stdafx.obj
 0002:00005568       ??_7CWin32Heap@ATL@@6B@    0044e568     stdafx.obj
 0002:00005580       ??_C@_1BG@CLPBKBHG@?$AAh?$AAH?$AAe?$AAa?$AAp?$AA?5?$AA?$CB?$AA?$DN?$AA?5?$AA0?$AA?$AA@ 0044e580     stdafx.obj
 0002:000055a0       ??_C@_1JO@LAOAFCKF@?$AAC?$AA?3?$AA?2?$AAP?$AAr?$AAo?$AAg?$AAr?$AAa?$AAm?$AA?5?$AAF?$AAi?$AAl?$AAe?$AAs?$AA?5?$AA?$CI?$AAx?$AA8?$AA6?$AA?$CJ?$AA?2?$AAM?$AAi?$AAc?$AAr?$AAo?$AAs?$AAo?$AAf?$AAt@ 0044e5a0     stdafx.obj
 0002:00005660       ??_C@_1BC@PMINONJG@?$AAb?$AAS?$AAu?$AAc?$AAc?$AAe?$AAs?$AAs?$AA?$AA@ 0044e660     stdafx.obj
 0002:00005678       ??_C@_1BE@BLGCOAPB@?$AAn?$AAR?$AAe?$AAf?$AAs?$AA?5?$AA?$DO?$AA?5?$AA0?$AA?$AA@ 0044e678     stdafx.obj
 0002:00005690       ??_C@_1KG@PGFKEEOC@?$AAC?$AA?3?$AA?2?$AAP?$AAr?$AAo?$AAg?$AAr?$AAa?$AAm?$AA?5?$AAF?$AAi?$AAl?$AAe?$AAs?$AA?5?$AA?$CI?$AAx?$AA8?$AA6?$AA?$CJ?$AA?2?$AAM?$AAi?$AAc?$AAr?$AAo?$AAs?$AAo?$AAf?$AAt@ 0044e690     stdafx.obj
 0002:00005758       ??_C@_1CA@MEFFJNJ@?$AAp?$AAS?$AAt?$AAr?$AAi?$AAn?$AAg?$AAM?$AAg?$AAr?$AA?5?$AA?$DN?$AA?$DN?$AA?5?$AA0?$AA?$AA@ 0044e758     stdafx.obj
 0002:00005780       ??_C@_1KA@GJIEBOGA@?$AAC?$AA?3?$AA?2?$AAP?$AAr?$AAo?$AAg?$AAr?$AAa?$AAm?$AA?5?$AAF?$AAi?$AAl?$AAe?$AAs?$AA?5?$AA?$CI?$AAx?$AA8?$AA6?$AA?$CJ?$AA?2?$AAM?$AAi?$AAc?$AAr?$AAo?$AAs?$AAo?$AAf?$AAt@ 0044e780     stdafx.obj
 0002:00005840       ??_C@_0FA@HILGODNH@C?3?2Program?5Files?5?$CIx86?$CJ?2Microsoft@ 0044e840     stdafx.obj
 0002:000058a0       ??_C@_1IA@KEEOONGN@?$AAE?$AAR?$AAR?$AAO?$AAR?$AA?5?$AA?3?$AA?5?$AAU?$AAn?$AAa?$AAb?$AAl?$AAe?$AA?5?$AAt?$AAo?$AA?5?$AAi?$AAn?$AAi?$AAt?$AAi?$AAa?$AAl?$AAi?$AAz?$AAe?$AA?5?$AAc?$AAr?$AAi@ 0044e8a0     stdafx.obj
 0002:00005940       ??_C@_1IG@OPJAFKJH@?$AAE?$AAR?$AAR?$AAO?$AAR?$AA?5?$AA?3?$AA?5?$AAU?$AAn?$AAa?$AAb?$AAl?$AAe?$AA?5?$AAt?$AAo?$AA?5?$AAi?$AAn?$AAi?$AAt?$AAi?$AAa?$AAl?$AAi?$AAz?$AAe?$AA?5?$AAc?$AAr?$AAi@ 0044e940     stdafx.obj
 0002:000059e4       ??_7CAtlStringMgr@ATL@@6B@ 0044e9e4     stdafx.obj
 0002:00005a08       ??_C@_1JO@DIDOKFBG@?$AAC?$AA?3?$AA?2?$AAP?$AAr?$AAo?$AAg?$AAr?$AAa?$AAm?$AA?5?$AAF?$AAi?$AAl?$AAe?$AAs?$AA?5?$AA?$CI?$AAx?$AA8?$AA6?$AA?$CJ?$AA?2?$AAM?$AAi?$AAc?$AAr?$AAo?$AAs?$AAo?$AAf?$AAt@ 0044ea08     stdafx.obj
 0002:00005ac8       ??_C@_1BG@IEBIBJEI@?$AAp?$AAD?$AAa?$AAt?$AAa?$AA?5?$AA?$CB?$AA?$DN?$AA?5?$AA0?$AA?$AA@ 0044eac8     stdafx.obj
 0002:00005ae4       ??_C@_1DE@KEEBDKDC@?$AAp?$AAD?$AAa?$AAt?$AAa?$AA?9?$AA?$DO?$AAp?$AAS?$AAt?$AAr?$AAi?$AAn?$AAg?$AAM?$AAg?$AAr?$AA?5?$AA?$DN?$AA?$DN?$AA?5?$AAt?$AAh?$AAi?$AAs?$AA?$AA@ 0044eae4     stdafx.obj
 0002:00005b28       ??_C@_1EA@JHMKKLFC@?$AAn?$AAI?$AAn?$AAd?$AAe?$AAx?$AA?5?$AA?$DO?$AA?$DN?$AA?5?$AA0?$AA?5?$AA?$CG?$AA?$CG?$AA?5?$AAn?$AAI?$AAn?$AAd?$AAe?$AAx?$AA?5?$AA?$DM?$AA?5?$AAm?$AA_?$AAn?$AAS?$AAi?$AAz?$AAe?$AA?$AA@ 0044eb28     stdafx.obj
 0002:00005b78       ??_C@_1KI@HDINNFHF@?$AAC?$AA?3?$AA?2?$AAP?$AAr?$AAo?$AAg?$AAr?$AAa?$AAm?$AA?5?$AAF?$AAi?$AAl?$AAe?$AAs?$AA?5?$AA?$CI?$AAx?$AA8?$AA6?$AA?$CJ?$AA?2?$AAM?$AAi?$AAc?$AAr?$AAo?$AAs?$AAo?$AAf?$AAt@ 0044eb78     stdafx.obj
 0002:00005c44       ??_C@_1BE@EKPAFMCP@?$AAI?$AAn?$AAt?$AAe?$AAr?$AAf?$AAa?$AAc?$AAe?$AA?$AA@ 0044ec44     mfcs120ud:nolib.obj
 0002:00005c58       ??_C@_1BC@MAICEHGI@?$AAH?$AAa?$AAr?$AAd?$AAw?$AAa?$AAr?$AAe?$AA?$AA@ 0044ec58     mfcs120ud:nolib.obj
 0002:00005c6c       ??_C@_19HLLLM@?$AAM?$AAi?$AAm?$AAe?$AA?$AA@ 0044ec6c     mfcs120ud:nolib.obj
 0002:00005c78       ??_C@_17OMAOINJK@?$AAS?$AAA?$AAM?$AA?$AA@ 0044ec78     mfcs120ud:nolib.obj
 0002:00005c80       ?VT@?$CVarTypeInfo@N@ATL@@2GB 0044ec80     mfcs120ud:nolib.obj
 0002:00005c84       ??_C@_1BC@IBECJAAI@?$AAS?$AAE?$AAC?$AAU?$AAR?$AAI?$AAT?$AAY?$AA?$AA@ 0044ec84     mfcs120ud:nolib.obj
 0002:00005c98       ??_C@_1O@GBFINDKL@?$AAS?$AAY?$AAS?$AAT?$AAE?$AAM?$AA?$AA@ 0044ec98     mfcs120ud:nolib.obj
 0002:00005ca8       ??_C@_1BC@EAHCMADO@?$AAS?$AAo?$AAf?$AAt?$AAw?$AAa?$AAr?$AAe?$AA?$AA@ 0044eca8     mfcs120ud:nolib.obj
 0002:00005cbc       ??_C@_1BA@JIHHIEDE@?$AAT?$AAy?$AAp?$AAe?$AAL?$AAi?$AAb?$AA?$AA@ 0044ecbc     mfcs120ud:nolib.obj
 0002:00005ccc       ?VT@?$CVarTypeInfo@PAN@ATL@@2GB 0044eccc     mfcs120ud:nolib.obj
 0002:00005cd0       ?VT@?$CVarTypeInfo@PAUtagVARIANT@@@ATL@@2GB 0044ecd0     mfcs120ud:nolib.obj
 0002:00005cd4       __GUID_1cf2b120_547d_101b_8e65_08002b2bd119 0044ecd4     mfcs120ud:nolib.obj
 0002:00005ce4       ?VT@?$CVarTypeInfo@PA_W@ATL@@2GB 0044ece4     mfcs120ud:nolib.obj
 0002:00005ce8       ?VT@?$CVarTypeInfo@PAPA_W@ATL@@2GB 0044ece8     mfcs120ud:nolib.obj
 0002:00005cec       ?VT@?$CVarTypeInfo@PAUIUnknown@@@ATL@@2GB 0044ecec     mfcs120ud:nolib.obj
 0002:00005cf0       __GUID_0002e012_0000_0000_c000_000000000046 0044ecf0     mfcs120ud:nolib.obj
 0002:00005d00       ?VT@?$CVarTypeInfo@PAPAUIUnknown@@@ATL@@2GB 0044ed00     mfcs120ud:nolib.obj
 0002:00005d04       ?VT@?$CVarTypeInfo@PAUIDispatch@@@ATL@@2GB 0044ed04     mfcs120ud:nolib.obj
 0002:00005d08       __GUID_00000000_0000_0000_c000_000000000046 0044ed08     mfcs120ud:nolib.obj
 0002:00005d18       ?VT@?$CVarTypeInfo@PAPAUIDispatch@@@ATL@@2GB 0044ed18     mfcs120ud:nolib.obj
 0002:00005d1c       __GUID_00020400_0000_0000_c000_000000000046 0044ed1c     mfcs120ud:nolib.obj
 0002:00005d2c       ?VT@?$CVarTypeInfo@TtagCY@@@ATL@@2GB 0044ed2c     mfcs120ud:nolib.obj
 0002:00005d30       ?VT@?$CVarTypeInfo@PATtagCY@@@ATL@@2GB 0044ed30     mfcs120ud:nolib.obj
 0002:00005d34       ?sc_redShift@ColorF@D2D1@@0IB 0044ed34     mfcs120ud:nolib.obj
 0002:00005d38       ?sc_greenShift@ColorF@D2D1@@0IB 0044ed38     mfcs120ud:nolib.obj
 0002:00005d3c       ?sc_blueShift@ColorF@D2D1@@0IB 0044ed3c     mfcs120ud:nolib.obj
 0002:00005d40       ?sc_redMask@ColorF@D2D1@@0IB 0044ed40     mfcs120ud:nolib.obj
 0002:00005d44       ?sc_greenMask@ColorF@D2D1@@0IB 0044ed44     mfcs120ud:nolib.obj
 0002:00005d48       ?sc_blueMask@ColorF@D2D1@@0IB 0044ed48     mfcs120ud:nolib.obj
 0002:00005d4c       ??_C@_1M@KANJNLFF@?$AAC?$AAL?$AAS?$AAI?$AAD?$AA?$AA@ 0044ed4c     mfcs120ud:nolib.obj
 0002:00005d58       __GUID_00000001_0000_0000_c000_000000000046 0044ed58     mfcs120ud:nolib.obj
 0002:00005d68       ??_C@_1M@EJNEECMJ@?$AAA?$AAp?$AAp?$AAI?$AAD?$AA?$AA@ 0044ed68     mfcs120ud:nolib.obj
 0002:00005d74       __GUID_11a66efa_382e_451a_9234_1e0e12ef3085 0044ed74     mfcs120ud:nolib.obj
 0002:00005d84       __GUID_783321ed_78a3_4366_b574_6af607a64788 0044ed84     mfcs120ud:nolib.obj
 0002:00005d94       ??_C@_13HADIAKP@?$AAS?$AA?$AA@ 0044ed94     mfcs120ud:nolib.obj
 0002:00005d98       ??_C@_13LHMFKAAD@?$AAM?$AA?$AA@ 0044ed98     mfcs120ud:nolib.obj
 0002:00005d9c       ??_C@_13MKMNOPIJ@?$AAD?$AA?$AA@ 0044ed9c     mfcs120ud:nolib.obj
 0002:00005da0       ??_C@_13OPKGLAFF@?$AAB?$AA?$AA@ 0044eda0     mfcs120ud:nolib.obj
 0002:00005da4       ??_C@_17LLMMEOJD@?$AAV?$AAa?$AAl?$AA?$AA@ 0044eda4     mfcs120ud:nolib.obj
 0002:00005dac       __GUID_6358b7ba_87d2_42d5_bf71_82e919dd5862 0044edac     mfcs120ud:nolib.obj
 0002:00005dbc       ??_C@_1BI@JFAIJMHL@?$AAF?$AAo?$AAr?$AAc?$AAe?$AAR?$AAe?$AAm?$AAo?$AAv?$AAe?$AA?$AA@ 0044edbc     mfcs120ud:nolib.obj
 0002:00005dd4       ??_C@_1BC@GCKHIPE@?$AAN?$AAo?$AAR?$AAe?$AAm?$AAo?$AAv?$AAe?$AA?$AA@ 0044edd4     mfcs120ud:nolib.obj
 0002:00005de8       ??_C@_1O@JDLOHAN@?$AAD?$AAe?$AAl?$AAe?$AAt?$AAe?$AA?$AA@ 0044ede8     mfcs120ud:nolib.obj
 0002:00005df8       __GUID_43826d1e_e718_42ee_bc55_a1e261c37bfe 0044edf8     mfcs120ud:nolib.obj
 0002:00005e08       __GUID_bb3e1550_356e_44b0_99da_85ac6017865e 0044ee08     mfcs120ud:nolib.obj
 0002:00005e18       __GUID_3d5c9008_ec7c_4364_9f8a_9af3c58cbae6 0044ee18     mfcs120ud:nolib.obj
 0002:00005e28       __GUID_274a7dea_d771_4095_abbd_8df7abd23ce3 0044ee28     mfcs120ud:nolib.obj
 0002:00005e38       ?c_bIsMFCDLLTraits@?$_MFCDLLTraitsCheck@DV?$StrTraitMFC_DLL@DV?$ChTraitsCRT@D@ATL@@@@@_CSTRING_IMPL_@ATL@@2_NB 0044ee38     mfcs120ud:nolib.obj
 0002:00005e3c       __GUID_7815cbba_ddf7_478c_a46c_7b6c738b7978 0044ee3c     mfcs120ud:nolib.obj
 0002:00005e4c       __GUID_00020412_0000_0000_c000_000000000046 0044ee4c     mfcs120ud:nolib.obj
 0002:00005e5c       __GUID_00020401_0000_0000_c000_000000000046 0044ee5c     mfcs120ud:nolib.obj
 0002:00005e6c       ?c_bIsMFCDLLTraits@?$_MFCDLLTraitsCheck@_WV?$StrTraitATL@_WV?$ChTraitsCRT@_W@ATL@@@ATL@@@_CSTRING_IMPL_@ATL@@2_NB 0044ee6c     mfcs120ud:nolib.obj
 0002:00005e70       ?generic@CArchiveException@@2HB 0044ee70     mfcs120ud:nolib.obj
 0002:00005e78       ?Millisecond@CFileTime@ATL@@2_KB 0044ee78     mfcs120ud:nolib.obj
 0002:00005e80       ?Second@CFileTime@ATL@@2_KB 0044ee80     mfcs120ud:nolib.obj
 0002:00005e88       ?Minute@CFileTime@ATL@@2_KB 0044ee88     mfcs120ud:nolib.obj
 0002:00005e90       ?Hour@CFileTime@ATL@@2_KB  0044ee90     mfcs120ud:nolib.obj
 0002:00005e98       ?Day@CFileTime@ATL@@2_KB   0044ee98     mfcs120ud:nolib.obj
 0002:00005ea0       ?Week@CFileTime@ATL@@2_KB  0044eea0     mfcs120ud:nolib.obj
 0002:00005ea8       ?_Min@?$AtlLimits@H@ATL@@2HB 0044eea8     mfcs120ud:nolib.obj
 0002:00005eac       ?_Max@?$AtlLimits@H@ATL@@2HB 0044eeac     mfcs120ud:nolib.obj
 0002:00005eb0       ?generic@CFileException@@2HB 0044eeb0     mfcs120ud:nolib.obj
 0002:00005eb4       ??_C@_1CC@FFBCNGIJ@?$AAI?$AAn?$AAv?$AAa?$AAl?$AAi?$AAd?$AA?5?$AAD?$AAa?$AAt?$AAe?$AAT?$AAi?$AAm?$AAe?$AA?$AA@ 0044eeb4     mfcs120ud:nolib.obj
 0002:00005ed8       ??_C@_1CK@NMKILLLB@?$AAI?$AAn?$AAv?$AAa?$AAl?$AAi?$AAd?$AA?5?$AAD?$AAa?$AAt?$AAe?$AAT?$AAi?$AAm?$AAe?$AAS?$AAp?$AAa?$AAn?$AA?$AA@ 0044eed8     mfcs120ud:nolib.obj
 0002:00005f04       ?_Min@?$AtlLimits@I@ATL@@2IB 0044ef04     mfcs120ud:nolib.obj
 0002:00005f08       ?_Max@?$AtlLimits@I@ATL@@2IB 0044ef08     mfcs120ud:nolib.obj
 0002:00005f0c       ?_Min@?$AtlLimits@J@ATL@@2JB 0044ef0c     mfcs120ud:nolib.obj
 0002:00005f10       ?_Max@?$AtlLimits@J@ATL@@2JB 0044ef10     mfcs120ud:nolib.obj
 0002:00005f14       __GUID_a6bc3ac0_dbaa_11ce_9de3_00aa004bb851 0044ef14     mfcs120ud:nolib.obj
 0002:00005f24       ?MAX_VALUE@CRegParser@ATL@@1HB 0044ef24     mfcs120ud:nolib.obj
 0002:00005f28       ?_Min@?$AtlLimits@K@ATL@@2KB 0044ef28     mfcs120ud:nolib.obj
 0002:00005f2c       ?_Max@?$AtlLimits@K@ATL@@2KB 0044ef2c     mfcs120ud:nolib.obj
 0002:00005f30       ?_Min@?$AtlLimits@_J@ATL@@2_JB 0044ef30     mfcs120ud:nolib.obj
 0002:00005f38       ?_Max@?$AtlLimits@_J@ATL@@2_JB 0044ef38     mfcs120ud:nolib.obj
 0002:00005f40       ?_Min@?$AtlLimits@_K@ATL@@2_KB 0044ef40     mfcs120ud:nolib.obj
 0002:00005f48       ?_Max@?$AtlLimits@_K@ATL@@2_KB 0044ef48     mfcs120ud:nolib.obj
 0002:00005f50       ?MAX_TYPE@CRegParser@ATL@@1HB 0044ef50     mfcs120ud:nolib.obj
 0002:00005f54       __GUID_0000010c_0000_0000_c000_000000000046 0044ef54     mfcs120ud:nolib.obj
 0002:00005f64       __GUID_fc4801a3_2ba9_11cf_a229_00aa003d7352 0044ef64     mfcs120ud:nolib.obj
 0002:00005f74       ?VT@?$CVarTypeInfo@D@ATL@@2GB 0044ef74     mfcs120ud:nolib.obj
 0002:00005f78       ?VT@?$CVarTypeInfo@E@ATL@@2GB 0044ef78     mfcs120ud:nolib.obj
 0002:00005f7c       ?VT@?$CVarTypeInfo@PAD@ATL@@2GB 0044ef7c     mfcs120ud:nolib.obj
 0002:00005f80       ?VT@?$CVarTypeInfo@PAE@ATL@@2GB 0044ef80     mfcs120ud:nolib.obj
 0002:00005f84       ?VT@?$CVarTypeInfo@F@ATL@@2GB 0044ef84     mfcs120ud:nolib.obj
 0002:00005f88       __GUID_00000146_0000_0000_c000_000000000046 0044ef88     mfcs120ud:nolib.obj
 0002:00005f98       __GUID_00000109_0000_0000_c000_000000000046 0044ef98     mfcs120ud:nolib.obj
 0002:00005fa8       __GUID_7fd52380_4e07_101b_ae2d_08002b2ec713 0044efa8     mfcs120ud:nolib.obj
 0002:00005fb8       ?VT@?$CVarTypeInfo@PAF@ATL@@2GB 0044efb8     mfcs120ud:nolib.obj
 0002:00005fbc       ?VT@?$CVarTypeInfo@G@ATL@@2GB 0044efbc     mfcs120ud:nolib.obj
 0002:00005fc0       __GUID_b196b284_bab4_101a_b69c_00aa00341d07 0044efc0     mfcs120ud:nolib.obj
 0002:00005fd0       ?VT@?$CVarTypeInfo@PAG@ATL@@2GB 0044efd0     mfcs120ud:nolib.obj
 0002:00005fd4       ?VT@?$CVarTypeInfo@H@ATL@@2GB 0044efd4     mfcs120ud:nolib.obj
 0002:00005fd6       ?c_bIsMFCDLLTraits@?$_MFCDLLTraitsCheck@DV?$StrTraitATL@DV?$ChTraitsCRT@D@ATL@@@ATL@@@_CSTRING_IMPL_@ATL@@2_NB 0044efd6     mfcs120ud:nolib.obj
 0002:00005fd8       ?VT@?$CVarTypeInfo@PAH@ATL@@2GB 0044efd8     mfcs120ud:nolib.obj
 0002:00005fdc       ?VT@?$CVarTypeInfo@I@ATL@@2GB 0044efdc     mfcs120ud:nolib.obj
 0002:00005fe0       ?VT@?$CVarTypeInfo@PAI@ATL@@2GB 0044efe0     mfcs120ud:nolib.obj
 0002:00005fe4       ?VT@?$CVarTypeInfo@J@ATL@@2GB 0044efe4     mfcs120ud:nolib.obj
 0002:00005fe6       ?c_bIsMFCDLLTraits@?$_MFCDLLTraitsCheck@_WV?$StrTraitMFC_DLL@_WV?$ChTraitsCRT@_W@ATL@@@@@_CSTRING_IMPL_@ATL@@2_NB 0044efe6     mfcs120ud:nolib.obj
 0002:00005fe8       ?VT@?$CVarTypeInfo@PAJ@ATL@@2GB 0044efe8     mfcs120ud:nolib.obj
 0002:00005fec       ?VT@?$CVarTypeInfo@K@ATL@@2GB 0044efec     mfcs120ud:nolib.obj
 0002:00005ff0       ?VT@?$CVarTypeInfo@PAK@ATL@@2GB 0044eff0     mfcs120ud:nolib.obj
 0002:00005ff4       ?VT@?$CVarTypeInfo@_J@ATL@@2GB 0044eff4     mfcs120ud:nolib.obj
 0002:00005ff8       ?VT@?$CVarTypeInfo@PA_J@ATL@@2GB 0044eff8     mfcs120ud:nolib.obj
 0002:00005ffc       ?VT@?$CVarTypeInfo@_K@ATL@@2GB 0044effc     mfcs120ud:nolib.obj
 0002:00006000       ?VT@?$CVarTypeInfo@PA_K@ATL@@2GB 0044f000     mfcs120ud:nolib.obj
 0002:00006004       ?VT@?$CVarTypeInfo@M@ATL@@2GB 0044f004     mfcs120ud:nolib.obj
 0002:00006008       ?maxDaysInSpan@COleDateTimeSpan@ATL@@0JB 0044f008     mfcs120ud:nolib.obj
 0002:0000600c       ?VT@?$CVarTypeInfo@PAM@ATL@@2GB 0044f00c     mfcs120ud:nolib.obj
 0002:00006010       ??_C@_1CK@OEKPKBNA@?$AAC?$AAo?$AAm?$AAp?$AAo?$AAn?$AAe?$AAn?$AAt?$AA?5?$AAC?$AAa?$AAt?$AAe?$AAg?$AAo?$AAr?$AAi?$AAe?$AAs?$AA?$AA@ 0044f010     mfcs120ud:nolib.obj
 0002:0000603c       ??_C@_1BC@NKMMNMGL@?$AAF?$AAi?$AAl?$AAe?$AAT?$AAy?$AAp?$AAe?$AA?$AA@ 0044f03c     mfcs120ud:nolib.obj
 0002:00006050       ??_C@_0O@JKAFBCMB@CreateActCtxW?$AA@ 0044f050     mfcs120ud:nolib.obj
 0002:00006060       ??_C@_0P@CECBPMJL@ActivateActCtx?$AA@ 0044f060     mfcs120ud:nolib.obj
 0002:00006070       ??_C@_0BB@NPIOCCPF@DeactivateActCtx?$AA@ 0044f070     mfcs120ud:nolib.obj
 0002:00006084       ??_C@_0BJ@MGNMALIC@FindActCtxSectionStringW?$AA@ 0044f084     mfcs120ud:nolib.obj
 0002:000060a0       ??_C@_0N@IMINIHMJ@QueryActCtxW?$AA@ 0044f0a0     mfcs120ud:nolib.obj
 0002:000060b0       ??_C@_0BD@GIGEJCNH@GetModuleHandleExW?$AA@ 0044f0b0     mfcs120ud:nolib.obj
 0002:000060c4       ??_C@_1BK@BFMCNHEO@?$AAC?$AAo?$AAm?$AAc?$AAt?$AAl?$AA3?$AA2?$AA?4?$AAd?$AAl?$AAl?$AA?$AA@ 0044f0c4     mfcs120ud:nolib.obj
 0002:000060e0       ?debugString@?4??IsolationAwarePrivatenPgViNgRzlnPgpgk@@9@4@4QBDB 0044f0e0     mfcs120ud:nolib.obj
 0002:0000611c       ?c@?1??WinbaseIsolationAwarePrivatetRgCebPnQQeRff_xReaRYQP_QYY@@9@4@4UIsolationAwarePrivate_pBAFGnAG_zBqHyr_vAsB@@B 0044f11c     mfcs120ud:nolib.obj
 0002:0000612c       ??_C@_1BK@EJBALEBG@?$AAK?$AAe?$AAr?$AAn?$AAe?$AAl?$AA3?$AA2?$AA?4?$AAd?$AAl?$AAl?$AA?$AA@ 0044f12c     mfcs120ud:nolib.obj
 0002:00006148       ??_C@_0N@HAOHNMDE@Kernel32?4dll?$AA@ 0044f148     mfcs120ud:nolib.obj
 0002:00006158       ??_C@_1CA@ONGMEOAB@?$AAa?$AAt?$AAl?$AAT?$AAr?$AAa?$AAc?$AAe?$AAG?$AAe?$AAn?$AAe?$AAr?$AAa?$AAl?$AA?$AA@ 0044f158     mfcs120ud:nolib.obj
 0002:00006178       ??_C@_1BI@MAFGHOEE@?$AAa?$AAt?$AAl?$AAT?$AAr?$AAa?$AAc?$AAe?$AAC?$AAO?$AAM?$AA?$AA@ 0044f178     mfcs120ud:nolib.obj
 0002:00006190       ??_C@_1BG@FPLJJEMF@?$AAa?$AAt?$AAl?$AAT?$AAr?$AAa?$AAc?$AAe?$AAQ?$AAI?$AA?$AA@ 0044f190     mfcs120ud:nolib.obj
 0002:000061a8       ??_C@_1CE@NIAEAIDK@?$AAa?$AAt?$AAl?$AAT?$AAr?$AAa?$AAc?$AAe?$AAR?$AAe?$AAg?$AAi?$AAs?$AAt?$AAr?$AAa?$AAr?$AA?$AA@ 0044f1a8     mfcs120ud:nolib.obj
 0002:000061cc       ??_C@_1CC@BNHGJFNK@?$AAa?$AAt?$AAl?$AAT?$AAr?$AAa?$AAc?$AAe?$AAR?$AAe?$AAf?$AAc?$AAo?$AAu?$AAn?$AAt?$AA?$AA@ 0044f1cc     mfcs120ud:nolib.obj
 0002:000061f0       ??_C@_1CE@NAJDPMNB@?$AAa?$AAt?$AAl?$AAT?$AAr?$AAa?$AAc?$AAe?$AAW?$AAi?$AAn?$AAd?$AAo?$AAw?$AAi?$AAn?$AAg?$AA?$AA@ 0044f1f0     mfcs120ud:nolib.obj
 0002:00006214       ??_C@_1CC@IMNJGBED@?$AAa?$AAt?$AAl?$AAT?$AAr?$AAa?$AAc?$AAe?$AAC?$AAo?$AAn?$AAt?$AAr?$AAo?$AAl?$AAs?$AA?$AA@ 0044f214     mfcs120ud:nolib.obj
 0002:00006238       ??_C@_1CA@OMOMONMN@?$AAa?$AAt?$AAl?$AAT?$AAr?$AAa?$AAc?$AAe?$AAH?$AAo?$AAs?$AAt?$AAi?$AAn?$AAg?$AA?$AA@ 0044f238     mfcs120ud:nolib.obj
 0002:00006258       ??_C@_1CC@JNJJDOOH@?$AAa?$AAt?$AAl?$AAT?$AAr?$AAa?$AAc?$AAe?$AAD?$AAB?$AAC?$AAl?$AAi?$AAe?$AAn?$AAt?$AA?$AA@ 0044f258     mfcs120ud:nolib.obj
 0002:0000627c       ??_C@_1CG@MNMMIOOI@?$AAa?$AAt?$AAl?$AAT?$AAr?$AAa?$AAc?$AAe?$AAD?$AAB?$AAP?$AAr?$AAo?$AAv?$AAi?$AAd?$AAe?$AAr?$AA?$AA@ 0044f27c     mfcs120ud:nolib.obj
 0002:000062a4       ??_C@_1BO@EFPHNHHN@?$AAa?$AAt?$AAl?$AAT?$AAr?$AAa?$AAc?$AAe?$AAS?$AAn?$AAa?$AAp?$AAi?$AAn?$AA?$AA@ 0044f2a4     mfcs120ud:nolib.obj
 0002:000062c4       ??_C@_1CA@DMHPIODO@?$AAa?$AAt?$AAl?$AAT?$AAr?$AAa?$AAc?$AAe?$AAN?$AAo?$AAt?$AAI?$AAm?$AAp?$AAl?$AA?$AA@ 0044f2c4     mfcs120ud:nolib.obj
 0002:000062e4       ??_C@_1CG@KFEEMCDH@?$AAa?$AAt?$AAl?$AAT?$AAr?$AAa?$AAc?$AAe?$AAA?$AAl?$AAl?$AAo?$AAc?$AAa?$AAt?$AAi?$AAo?$AAn?$AA?$AA@ 0044f2e4     mfcs120ud:nolib.obj
 0002:0000630c       ??_C@_1CE@IMMADNAP@?$AAa?$AAt?$AAl?$AAT?$AAr?$AAa?$AAc?$AAe?$AAE?$AAx?$AAc?$AAe?$AAp?$AAt?$AAi?$AAo?$AAn?$AA?$AA@ 0044f30c     mfcs120ud:nolib.obj
 0002:00006330       ??_C@_1BK@NCJHOFCL@?$AAa?$AAt?$AAl?$AAT?$AAr?$AAa?$AAc?$AAe?$AAT?$AAi?$AAm?$AAe?$AA?$AA@ 0044f330     mfcs120ud:nolib.obj
 0002:0000634c       ??_C@_1BM@GIKLHLFD@?$AAa?$AAt?$AAl?$AAT?$AAr?$AAa?$AAc?$AAe?$AAC?$AAa?$AAc?$AAh?$AAe?$AA?$AA@ 0044f34c     mfcs120ud:nolib.obj
 0002:00006368       ??_C@_1CA@PBPHANCD@?$AAa?$AAt?$AAl?$AAT?$AAr?$AAa?$AAc?$AAe?$AAS?$AAt?$AAe?$AAn?$AAc?$AAi?$AAl?$AA?$AA@ 0044f368     mfcs120ud:nolib.obj
 0002:00006388       ??_C@_1BO@GMLILNDJ@?$AAa?$AAt?$AAl?$AAT?$AAr?$AAa?$AAc?$AAe?$AAS?$AAt?$AAr?$AAi?$AAn?$AAg?$AA?$AA@ 0044f388     mfcs120ud:nolib.obj
 0002:000063a8       ??_C@_1BI@OKDLCIEM@?$AAa?$AAt?$AAl?$AAT?$AAr?$AAa?$AAc?$AAe?$AAM?$AAa?$AAp?$AA?$AA@ 0044f3a8     mfcs120ud:nolib.obj
 0002:000063c0       ??_C@_1BK@DMHCKHHD@?$AAa?$AAt?$AAl?$AAT?$AAr?$AAa?$AAc?$AAe?$AAU?$AAt?$AAi?$AAl?$AA?$AA@ 0044f3c0     mfcs120ud:nolib.obj
 0002:000063dc       ??_C@_1CC@DMMBNCFG@?$AAa?$AAt?$AAl?$AAT?$AAr?$AAa?$AAc?$AAe?$AAS?$AAe?$AAc?$AAu?$AAr?$AAi?$AAt?$AAy?$AA?$AA@ 0044f3dc     mfcs120ud:nolib.obj
 0002:00006400       ??_C@_1BK@OPAPOCAL@?$AAa?$AAt?$AAl?$AAT?$AAr?$AAa?$AAc?$AAe?$AAS?$AAy?$AAn?$AAc?$AA?$AA@ 0044f400     mfcs120ud:nolib.obj
 0002:0000641c       ??_C@_1BM@FHAEDBFK@?$AAa?$AAt?$AAl?$AAT?$AAr?$AAa?$AAc?$AAe?$AAI?$AAS?$AAA?$AAP?$AAI?$AA?$AA@ 0044f41c     mfcs120ud:nolib.obj
 0002:00006438       ??_C@_1GK@BKHJGBLD@?$AAf?$AA?3?$AA?2?$AAd?$AAd?$AA?2?$AAv?$AAc?$AAt?$AAo?$AAo?$AAl?$AAs?$AA?2?$AAv?$AAc?$AA7?$AAl?$AAi?$AAb?$AAs?$AA?2?$AAs?$AAh?$AAi?$AAp?$AA?2?$AAa?$AAt?$AAl?$AAm?$AAf@ 0044f438     mfcs120ud:nolib.obj
 0002:000064a8       ??_C@_1GG@GCEHDONA@?$AAf?$AA?3?$AA?2?$AAd?$AAd?$AA?2?$AAv?$AAc?$AAt?$AAo?$AAo?$AAl?$AAs?$AA?2?$AAv?$AAc?$AA7?$AAl?$AAi?$AAb?$AAs?$AA?2?$AAs?$AAh?$AAi?$AAp?$AA?2?$AAa?$AAt?$AAl?$AAm?$AAf@ 0044f4a8     mfcs120ud:nolib.obj
 0002:00006510       ??_C@_1GO@KJNAPAOI@?$AAf?$AA?3?$AA?2?$AAd?$AAd?$AA?2?$AAv?$AAc?$AAt?$AAo?$AAo?$AAl?$AAs?$AA?2?$AAv?$AAc?$AA7?$AAl?$AAi?$AAb?$AAs?$AA?2?$AAs?$AAh?$AAi?$AAp?$AA?2?$AAa?$AAt?$AAl?$AAm?$AAf@ 0044f510     mfcs120ud:nolib.obj
 0002:00006580       ??_C@_1GI@HPMIGMAH@?$AAf?$AA?3?$AA?2?$AAd?$AAd?$AA?2?$AAv?$AAc?$AAt?$AAo?$AAo?$AAl?$AAs?$AA?2?$AAv?$AAc?$AA7?$AAl?$AAi?$AAb?$AAs?$AA?2?$AAs?$AAh?$AAi?$AAp?$AA?2?$AAa?$AAt?$AAl?$AAm?$AAf@ 0044f580     mfcs120ud:nolib.obj
 0002:000065e8       ??_C@_0DE@CLCFEHFD@f?3?2dd?2vctools?2vc7libs?2ship?2atlmf@ 0044f5e8     mfcs120ud:nolib.obj
 0002:00006620       ??_C@_1GG@OKJJMJGD@?$AAf?$AA?3?$AA?2?$AAd?$AAd?$AA?2?$AAv?$AAc?$AAt?$AAo?$AAo?$AAl?$AAs?$AA?2?$AAv?$AAc?$AA7?$AAl?$AAi?$AAb?$AAs?$AA?2?$AAs?$AAh?$AAi?$AAp?$AA?2?$AAa?$AAt?$AAl?$AAm?$AAf@ 0044f620     mfcs120ud:nolib.obj
 0002:00006688       ??_C@_1HA@EFGOBFOA@?$AAf?$AA?3?$AA?2?$AAd?$AAd?$AA?2?$AAv?$AAc?$AAt?$AAo?$AAo?$AAl?$AAs?$AA?2?$AAv?$AAc?$AA7?$AAl?$AAi?$AAb?$AAs?$AA?2?$AAs?$AAh?$AAi?$AAp?$AA?2?$AAa?$AAt?$AAl?$AAm?$AAf@ 0044f688     mfcs120ud:nolib.obj
 0002:000066f8       ??_C@_1FA@DALEHHGL@?$AA_?$AA_?$AAn?$AAa?$AAt?$AAi?$AAv?$AAe?$AA_?$AAs?$AAt?$AAa?$AAr?$AAt?$AAu?$AAp?$AA_?$AAs?$AAt?$AAa?$AAt?$AAe?$AA?5?$AA?$DN?$AA?$DN?$AA?5?$AA_?$AA_?$AAi?$AAn?$AAi?$AAt@ 0044f6f8     msvcrtd:wcrtexew.obj
 0002:00006748       ??_C@_1FG@DKNDLLJO@?$AAf?$AA?3?$AA?2?$AAd?$AAd?$AA?2?$AAv?$AAc?$AAt?$AAo?$AAo?$AAl?$AAs?$AA?2?$AAc?$AAr?$AAt?$AA?2?$AAc?$AAr?$AAt?$AAw?$AA3?$AA2?$AA?2?$AAd?$AAl?$AAl?$AAs?$AAt?$AAu?$AAf@ 0044f748     msvcrtd:wcrtexew.obj
 0002:000067a0       ??_C@_1MC@KPMPFEII@?$AA?$CI?$AA_?$AA_?$AAo?$AAn?$AAe?$AAx?$AAi?$AAt?$AAb?$AAe?$AAg?$AAi?$AAn?$AA?5?$AA?$CB?$AA?$DN?$AA?5?$AAN?$AAU?$AAL?$AAL?$AA?5?$AA?$CG?$AA?$CG?$AA?5?$AA_?$AA_?$AAo?$AAn?$AAe?$AAx@ 0044f7a0     msvcrtd:atonexit.obj
 0002:00006868       ??_C@_1FK@IGIDCAPD@?$AAf?$AA?3?$AA?2?$AAd?$AAd?$AA?2?$AAv?$AAc?$AAt?$AAo?$AAo?$AAl?$AAs?$AA?2?$AAc?$AAr?$AAt?$AA?2?$AAc?$AAr?$AAt?$AAw?$AA3?$AA2?$AA?2?$AAd?$AAl?$AAl?$AAs?$AAt?$AAu?$AAf@ 0044f868     msvcrtd:atonexit.obj
 0002:000068c4       ??_C@_0CN@LMJJPMEG@f?3?2dd?2vctools?2crt?2crtw32?2dllstuf@ 0044f8c4     msvcrtd:atonexit.obj
 0002:000068f1       ?value@?$integral_constant@_N$0A@@std@@2_NB 0044f8f1     msvcrtd:ti_inst.obj
 0002:000068f2       ?value@?$integral_constant@_N$00@std@@2_NB 0044f8f2     msvcrtd:ti_inst.obj
 0002:000068f8       ??_7type_info@@6B@         0044f8f8     msvcrtd:ti_inst.obj
 0002:000068fc       ?ProcessDetach@NativeDll@<CrtImplementationDetails>@@0IB 0044f8fc     msvcrtd:unhandld.obj
 0002:00006900       ?ProcessAttach@NativeDll@<CrtImplementationDetails>@@0IB 0044f900     msvcrtd:unhandld.obj
 0002:00006904       ?ThreadAttach@NativeDll@<CrtImplementationDetails>@@0IB 0044f904     msvcrtd:unhandld.obj
 0002:00006908       ?ThreadDetach@NativeDll@<CrtImplementationDetails>@@0IB 0044f908     msvcrtd:unhandld.obj
 0002:0000690c       ?ProcessVerifier@NativeDll@<CrtImplementationDetails>@@0IB 0044f90c     msvcrtd:unhandld.obj
 0002:00006910       ??_C@_1FI@JJOJLGLE@?$AAf?$AA?3?$AA?2?$AAd?$AAd?$AA?2?$AAv?$AAc?$AAt?$AAo?$AAo?$AAl?$AAs?$AA?2?$AAc?$AAr?$AAt?$AA?2?$AAc?$AAr?$AAt?$AAw?$AA3?$AA2?$AA?2?$AAs?$AAt?$AAa?$AAr?$AAt?$AAu?$AAp@ 0044f910     msvcrtd:fp8.obj
 0002:00006968       ??_C@_1CK@JMKHCBEI@?$AA_?$AAs?$AAe?$AAt?$AAd?$AAe?$AAf?$AAa?$AAu?$AAl?$AAt?$AAp?$AAr?$AAe?$AAc?$AAi?$AAs?$AAi?$AAo?$AAn?$AA?$AA@ 0044f968     msvcrtd:fp8.obj
 0002:00006998       ??_C@_1GE@KOCFNGPB@?$AA_?$AAc?$AAo?$AAn?$AAt?$AAr?$AAo?$AAl?$AAf?$AAp?$AA_?$AAs?$AA?$CI?$AA?$CI?$AA?$CI?$AAv?$AAo?$AAi?$AAd?$AA?5?$AA?$CK?$AA?$CJ?$AA0?$AA?$CJ?$AA?0?$AA?5?$AA0?$AAx?$AA0?$AA0?$AA0?$AA1@ 0044f998     msvcrtd:fp8.obj
 0002:00006a98       ??_C@_0NN@NGPKDKPD@The?5value?5of?5ESP?5was?5not?5properl@ 0044fa98     msvcrtd:error.obj
 0002:00006b78       ??_C@_0BBN@GPMLNJCF@A?5cast?5to?5a?5smaller?5data?5type?5ha@ 0044fb78     msvcrtd:error.obj
 0002:00006c98       ??_C@_0BN@FFOINMNJ@Stack?5memory?5was?5corrupted?6?$AN?$AA@ 0044fc98     msvcrtd:error.obj
 0002:00006cb8       ??_C@_0DG@HKJMLLLP@A?5local?5variable?5was?5used?5before@ 0044fcb8     msvcrtd:error.obj
 0002:00006cf0       ??_C@_0CM@NGINOKPC@Stack?5memory?5around?5_alloca?5was?5@ 0044fcf0     msvcrtd:error.obj
 0002:00006d1c       ??_C@_0BO@GNIAFIKK@Unknown?5Runtime?5Check?5Error?6?$AN?$AA@ 0044fd1c     msvcrtd:error.obj
 0002:00006d40       ??_C@_1GM@OLMCBDMB@?$AAR?$AAu?$AAn?$AAt?$AAi?$AAm?$AAe?$AA?5?$AAC?$AAh?$AAe?$AAc?$AAk?$AA?5?$AAE?$AAr?$AAr?$AAo?$AAr?$AA?4?$AA?6?$AA?$AN?$AA?5?$AAU?$AAn?$AAa?$AAb?$AAl?$AAe?$AA?5?$AAt?$AAo@ 0044fd40     msvcrtd:error.obj
 0002:00006db0       ??_C@_1EA@NFKNIFJP@?$AAR?$AAu?$AAn?$AA?9?$AAT?$AAi?$AAm?$AAe?$AA?5?$AAC?$AAh?$AAe?$AAc?$AAk?$AA?5?$AAF?$AAa?$AAi?$AAl?$AAu?$AAr?$AAe?$AA?5?$AA?$CD?$AA?$CF?$AAd?$AA?5?$AA?9?$AA?5?$AA?$CF?$AAs?$AA?$AA@ 0044fdb0     msvcrtd:error.obj
 0002:00006df0       ??_C@_0BB@PFFGGCJP@Unknown?5Filename?$AA@ 0044fdf0     msvcrtd:error.obj
 0002:00006e04       ??_C@_0BE@GNBOBNCK@Unknown?5Module?5Name?$AA@ 0044fe04     msvcrtd:error.obj
 0002:00006e18       ??_C@_0CA@IODNCDPG@Run?9Time?5Check?5Failure?5?$CD?$CFd?5?9?5?$CFs?$AA@ 0044fe18     msvcrtd:error.obj
 0002:00006e38       ??_C@_0CG@IAFNJNEE@Stack?5corrupted?5near?5unknown?5var@ 0044fe38     msvcrtd:error.obj
 0002:00006e60       ??_C@_05MKKEDADM@?$CF?42X?5?$AA@ 0044fe60     msvcrtd:error.obj
 0002:00006e68       ??_C@_1BG@OILDLIOJ@?$AAu?$AAs?$AAe?$AAr?$AA3?$AA2?$AA?4?$AAd?$AAl?$AAl?$AA?$AA@ 0044fe68     msvcrtd:error.obj
 0002:00006e80       ??_C@_09FOPFMPEJ@wsprintfA?$AA@ 0044fe80     msvcrtd:error.obj
 0002:00006e90       ??_C@_0EJ@LJKNEOLN@Stack?5area?5around?5_alloca?5memory@ 0044fe90     msvcrtd:error.obj
 0002:00006edc       ??_C@_08OMAHNMHJ@?6Data?3?5?$DM?$AA@ 0044fedc     msvcrtd:error.obj
 0002:00006ee8       ??_C@_0CK@DKGBICFE@?6Allocation?5number?5within?5this?5f@ 0044fee8     msvcrtd:error.obj
 0002:00006f14       ??_C@_07DFDJCKFN@?6Size?3?5?$AA@ 0044ff14     msvcrtd:error.obj
 0002:00006f1c       ??_C@_0N@MHFFIMFG@?6Address?3?50x?$AA@ 0044ff1c     msvcrtd:error.obj
 0002:00006f30       ??_C@_0EI@CLEPFNGI@Stack?5area?5around?5_alloca?5memory@ 0044ff30     msvcrtd:error.obj
 0002:00006f78       ??_C@_0BC@KIBAILCI@?$CFs?$CFs?$CFp?$CFs?$CFld?$CFs?$CFd?$CFs?$AA@ 0044ff78     msvcrtd:error.obj
 0002:00006f8c       ??_C@_01EEMJAFIK@?6?$AA@   0044ff8c     msvcrtd:error.obj
 0002:00006f90       ??_C@_02LLMPMKNF@?$DO?5?$AA@ 0044ff90     msvcrtd:error.obj
 0002:00006f94       ??_C@_08KJEDNCKC@?$CFs?$CFs?$CFs?$CFs?$AA@ 0044ff94     msvcrtd:error.obj
 0002:00006fa0       ??_C@_0DE@OHJBPMBP@A?5variable?5is?5being?5used?5without@ 0044ffa0     msvcrtd:error.obj
 0002:00006ff0       ??_C@_0BJ@HEGAHDFO@Stack?5pointer?5corruption?$AA@ 0044fff0     msvcrtd:userapi.obj
 0002:0000700c       ??_C@_0CK@FEGOIOPB@Cast?5to?5smaller?5type?5causing?5los@ 0045000c     msvcrtd:userapi.obj
 0002:00007038       ??_C@_0BI@CIGMDCBH@Stack?5memory?5corruption?$AA@ 00450038     msvcrtd:userapi.obj
 0002:00007050       ??_C@_0CK@CNLNOEPB@Local?5variable?5used?5before?5initi@ 00450050     msvcrtd:userapi.obj
 0002:0000707c       ??_C@_0BP@OGBCLIBO@Stack?5around?5_alloca?5corrupted?$AA@ 0045007c     msvcrtd:userapi.obj
 0002:000070dc       ?LocalIdBitWidth@CrossScopeId@CodeViewInfo@@2IB 004500dc     msvcrtd:pdblkup.obj
 0002:000070e0       ?IdScopeBitWidth@CrossScopeId@CodeViewInfo@@2IB 004500e0     msvcrtd:pdblkup.obj
 0002:000070e4       ?StartCrossScopeId@CrossScopeId@CodeViewInfo@@2IB 004500e4     msvcrtd:pdblkup.obj
 0002:000070e8       ?LocalIdMask@CrossScopeId@CodeViewInfo@@2IB 004500e8     msvcrtd:pdblkup.obj
 0002:000070ec       ?ScopeIdMask@CrossScopeId@CodeViewInfo@@2IB 004500ec     msvcrtd:pdblkup.obj
 0002:000070f0       ?MaxLocalId@CrossScopeId@CodeViewInfo@@2IB 004500f0     msvcrtd:pdblkup.obj
 0002:000070f4       ?MaxScopeId@CrossScopeId@CodeViewInfo@@2IB 004500f4     msvcrtd:pdblkup.obj
 0002:000070f8       ??_C@_1BK@GAEMIDIL@?$AAA?$AAD?$AAV?$AAA?$AAP?$AAI?$AA3?$AA2?$AA?4?$AAD?$AAL?$AAL?$AA?$AA@ 004500f8     msvcrtd:pdblkup.obj
 0002:00007114       ??_C@_0O@COHOBMLB@RegOpenKeyExW?$AA@ 00450114     msvcrtd:pdblkup.obj
 0002:00007124       ??_C@_0BB@GLNAEDBD@RegQueryValueExW?$AA@ 00450124     msvcrtd:pdblkup.obj
 0002:00007138       ??_C@_0M@HLOHPNFA@RegCloseKey?$AA@ 00450138     msvcrtd:pdblkup.obj
 0002:00007148       ??_C@_1FM@EGIBBNPP@?$AAS?$AAO?$AAF?$AAT?$AAW?$AAA?$AAR?$AAE?$AA?2?$AAM?$AAi?$AAc?$AAr?$AAo?$AAs?$AAo?$AAf?$AAt?$AA?2?$AAV?$AAi?$AAs?$AAu?$AAa?$AAl?$AAS?$AAt?$AAu?$AAd?$AAi?$AAo?$AA?2@ 00450148     msvcrtd:pdblkup.obj
 0002:000071a4       ??_C@_1BG@EABPBLLF@?$AAP?$AAr?$AAo?$AAd?$AAu?$AAc?$AAt?$AAD?$AAi?$AAr?$AA?$AA@ 004501a4     msvcrtd:pdblkup.obj
 0002:000071d8       ??_C@_1BC@EOIMGOME@?$AAM?$AAS?$AAP?$AAD?$AAB?$AA1?$AA2?$AA0?$AA?$AA@ 004501d8     msvcrtd:pdblkup.obj
 0002:000071ec       ??_C@_0BB@KCIACLNC@PDBOpenValidate5?$AA@ 004501ec     msvcrtd:pdblkup.obj
 0002:00007200       ??_C@_01KDCPPGHE@r?$AA@    00450200     msvcrtd:pdblkup.obj
 0002:00007204       _GUID_NULL                 00450204     uuid:cguid_i.obj
 0002:00007214       _CATID_MARSHALER           00450214     uuid:cguid_i.obj
 0002:00007224       _IID_IRpcChannel           00450224     uuid:cguid_i.obj
 0002:00007234       _IID_IRpcStub              00450234     uuid:cguid_i.obj
 0002:00007244       _IID_IStubManager          00450244     uuid:cguid_i.obj
 0002:00007254       _IID_IRpcProxy             00450254     uuid:cguid_i.obj
 0002:00007264       _IID_IProxyManager         00450264     uuid:cguid_i.obj
 0002:00007274       _IID_IPSFactory            00450274     uuid:cguid_i.obj
 0002:00007284       _IID_IInternalMoniker      00450284     uuid:cguid_i.obj
 0002:00007294       _IID_IDfReserved1          00450294     uuid:cguid_i.obj
 0002:000072a4       _IID_IDfReserved2          004502a4     uuid:cguid_i.obj
 0002:000072b4       _IID_IDfReserved3          004502b4     uuid:cguid_i.obj
 0002:000072c4       _CLSID_StdMarshal          004502c4     uuid:cguid_i.obj
 0002:000072d4       _IID_IStub                 004502d4     uuid:cguid_i.obj
 0002:000072e4       _IID_IProxy                004502e4     uuid:cguid_i.obj
 0002:000072f4       _IID_IEnumGeneric          004502f4     uuid:cguid_i.obj
 0002:00007304       _IID_IEnumHolder           00450304     uuid:cguid_i.obj
 0002:00007314       _IID_IEnumCallback         00450314     uuid:cguid_i.obj
 0002:00007324       _IID_IOleManager           00450324     uuid:cguid_i.obj
 0002:00007334       _IID_IOlePresObj           00450334     uuid:cguid_i.obj
 0002:00007344       _IID_IDebug                00450344     uuid:cguid_i.obj
 0002:00007354       _IID_IDebugStream          00450354     uuid:cguid_i.obj
 0002:00007364       _CLSID_PSGenObject         00450364     uuid:cguid_i.obj
 0002:00007374       _CLSID_PSClientSite        00450374     uuid:cguid_i.obj
 0002:00007384       _CLSID_PSClassObject       00450384     uuid:cguid_i.obj
 0002:00007394       _CLSID_PSInPlaceActive     00450394     uuid:cguid_i.obj
 0002:000073a4       _CLSID_PSInPlaceFrame      004503a4     uuid:cguid_i.obj
 0002:000073b4       _CLSID_PSDragDrop          004503b4     uuid:cguid_i.obj
 0002:000073c4       _CLSID_PSBindCtx           004503c4     uuid:cguid_i.obj
 0002:000073d4       _CLSID_PSEnumerators       004503d4     uuid:cguid_i.obj
 0002:000073e4       _CLSID_StaticMetafile      004503e4     uuid:cguid_i.obj
 0002:000073f4       _CLSID_StaticDib           004503f4     uuid:cguid_i.obj
 0002:00007404       _CLSID_Picture_Metafile    00450404     uuid:cguid_i.obj
 0002:00007414       _CLSID_Picture_EnhMetafile 00450414     uuid:cguid_i.obj
 0002:00007424       _CLSID_Picture_Dib         00450424     uuid:cguid_i.obj
 0002:00007434       _CLSID_DCOMAccessControl   00450434     uuid:cguid_i.obj
 0002:00007444       _CLSID_StdGlobalInterfaceTable 00450444     uuid:cguid_i.obj
 0002:00007454       _CLSID_ManualResetEvent    00450454     uuid:cguid_i.obj
 0002:00007464       _CLSID_StdEvent            00450464     uuid:cguid_i.obj
 0002:00007474       _CLSID_SynchronizeContainer 00450474     uuid:cguid_i.obj
 0002:00007484       _CLSID_ComBinding          00450484     uuid:cguid_i.obj
 0002:00007494       _CLSID_StdAsyncActManager  00450494     uuid:cguid_i.obj
 0002:000074a4       _CLSID_InProcFreeMarshaler 004504a4     uuid:cguid_i.obj
 0002:000074b4       _CLSID_RemoteUnknownPSFactory 004504b4     uuid:cguid_i.obj
 0002:000074c4       _IID_IRichEditOle          004504c4     uuid:cguid_i.obj
 0002:000074d4       _IID_IRichEditOleCallback  004504d4     uuid:cguid_i.obj
 0002:000074e4       _CLSID_AllClasses          004504e4     uuid:cguid_i.obj
 0002:000074f4       _CLSID_LocalMachineClasses 004504f4     uuid:cguid_i.obj
 0002:00007504       _CLSID_CurrentUserClasses  00450504     uuid:cguid_i.obj
 0002:00007514       _CLSID_AddrControl         00450514     uuid:cguid_i.obj
 0002:00007524       _CLSID_GlobalOptions       00450524     uuid:cguid_i.obj
 0002:00007534       _CLSID_SurrogateManager    00450534     uuid:cguid_i.obj
 0002:00007544       _CLSID_ContextSwitcher     00450544     uuid:cguid_i.obj
 0002:00007554       _CLSID_ActivationStore     00450554     uuid:cguid_i.obj
 0002:00007564       _IID_IPropertyFrame        00450564     uuid:cguid_i.obj
 0002:00007574       _CLSID_CFontPropPage       00450574     uuid:cguid_i.obj
 0002:00007584       _CLSID_CColorPropPage      00450584     uuid:cguid_i.obj
 0002:00007594       _CLSID_CPicturePropPage    00450594     uuid:cguid_i.obj
 0002:000075a4       _CLSID_StockFontPage       004505a4     uuid:cguid_i.obj
 0002:000075b4       _CLSID_StockColorPage      004505b4     uuid:cguid_i.obj
 0002:000075c4       _CLSID_StockPicturePage    004505c4     uuid:cguid_i.obj
 0002:000075d4       _CLSID_PersistPropset      004505d4     uuid:cguid_i.obj
 0002:000075e4       _CLSID_ConvertVBX          004505e4     uuid:cguid_i.obj
 0002:000075f4       _CLSID_StdFont             004505f4     uuid:cguid_i.obj
 0002:00007604       _CLSID_StdPicture          00450604     uuid:cguid_i.obj
 0002:00007614       _GUID_HIMETRIC             00450614     uuid:cguid_i.obj
 0002:00007624       _GUID_COLOR                00450624     uuid:cguid_i.obj
 0002:00007634       _GUID_XPOSPIXEL            00450634     uuid:cguid_i.obj
 0002:00007644       _GUID_YPOSPIXEL            00450644     uuid:cguid_i.obj
 0002:00007654       _GUID_XSIZEPIXEL           00450654     uuid:cguid_i.obj
 0002:00007664       _GUID_YSIZEPIXEL           00450664     uuid:cguid_i.obj
 0002:00007674       _GUID_XPOS                 00450674     uuid:cguid_i.obj
 0002:00007684       _GUID_YPOS                 00450684     uuid:cguid_i.obj
 0002:00007694       _GUID_XSIZE                00450694     uuid:cguid_i.obj
 0002:000076a4       _GUID_YSIZE                004506a4     uuid:cguid_i.obj
 0002:000076b4       _GUID_TRISTATE             004506b4     uuid:cguid_i.obj
 0002:000076c4       _GUID_OPTIONVALUEEXCLUSIVE 004506c4     uuid:cguid_i.obj
 0002:000076d4       _GUID_CHECKVALUEEXCLUSIVE  004506d4     uuid:cguid_i.obj
 0002:000076e4       _GUID_FONTNAME             004506e4     uuid:cguid_i.obj
 0002:000076f4       _GUID_FONTSIZE             004506f4     uuid:cguid_i.obj
 0002:00007704       _GUID_FONTBOLD             00450704     uuid:cguid_i.obj
 0002:00007714       _GUID_FONTITALIC           00450714     uuid:cguid_i.obj
 0002:00007724       _GUID_FONTUNDERSCORE       00450724     uuid:cguid_i.obj
 0002:00007734       _GUID_FONTSTRIKETHROUGH    00450734     uuid:cguid_i.obj
 0002:00007744       _GUID_HANDLE               00450744     uuid:cguid_i.obj
 0002:00007754       _IID_StdOle                00450754     uuid:cguid_i.obj
 0002:00007764       _IID_ICursor               00450764     uuid:cguid_i.obj
 0002:00007774       _IID_ICursorMove           00450774     uuid:cguid_i.obj
 0002:00007784       _IID_ICursorScroll         00450784     uuid:cguid_i.obj
 0002:00007794       _IID_ICursorUpdateARow     00450794     uuid:cguid_i.obj
 0002:000077a4       _IID_INotifyDBEvents       004507a4     uuid:cguid_i.obj
 0002:000077b4       _IID_ICursorFind           004507b4     uuid:cguid_i.obj
 0002:000077c4       _IID_IEntryID              004507c4     uuid:cguid_i.obj
 0002:000077d4       __GUID_NAMEONLY            004507d4     uuid:cguid_i.obj
 0002:000077e4       __DBBMKGUID                004507e4     uuid:cguid_i.obj
 0002:000077f4       __DBCIDGUID                004507f4     uuid:cguid_i.obj
 0002:00007804       _IID_IBoundObject          00450804     uuid:cguid_i.obj
 0002:00007814       _IID_IBoundObjectSite      00450814     uuid:cguid_i.obj
 0002:00007824       _CLSID_GblComponentCategoriesMgr 00450824     uuid:cguid_i.obj
 0002:00007834       _CLSID_ThumbnailFCNHandler 00450834     uuid:cguid_i.obj
 0002:00007844       _CLSID_ThumbnailUpdater    00450844     uuid:cguid_i.obj
 0002:00007854       _IID_ICallbackWithNoReentrancyToApplicationSTA 00450854     uuid:cguid_i.obj
 0002:00007864       _GUID_DEVCLASS_1394        00450864     uuid:cguid_i.obj
 0002:00007874       _GUID_DEVCLASS_1394DEBUG   00450874     uuid:cguid_i.obj
 0002:00007884       _GUID_DEVCLASS_61883       00450884     uuid:cguid_i.obj
 0002:00007894       _GUID_DEVCLASS_ADAPTER     00450894     uuid:cguid_i.obj
 0002:000078a4       _GUID_DEVCLASS_APMSUPPORT  004508a4     uuid:cguid_i.obj
 0002:000078b4       _GUID_DEVCLASS_AVC         004508b4     uuid:cguid_i.obj
 0002:000078c4       _GUID_DEVCLASS_BATTERY     004508c4     uuid:cguid_i.obj
 0002:000078d4       _GUID_DEVCLASS_BIOMETRIC   004508d4     uuid:cguid_i.obj
 0002:000078e4       _GUID_DEVCLASS_BLUETOOTH   004508e4     uuid:cguid_i.obj
 0002:000078f4       _GUID_DEVCLASS_CDROM       004508f4     uuid:cguid_i.obj
 0002:00007904       _GUID_DEVCLASS_COMPUTER    00450904     uuid:cguid_i.obj
 0002:00007914       _GUID_DEVCLASS_DECODER     00450914     uuid:cguid_i.obj
 0002:00007924       _GUID_DEVCLASS_DISKDRIVE   00450924     uuid:cguid_i.obj
 0002:00007934       _GUID_DEVCLASS_DISPLAY     00450934     uuid:cguid_i.obj
 0002:00007944       _GUID_DEVCLASS_DOT4        00450944     uuid:cguid_i.obj
 0002:00007954       _GUID_DEVCLASS_DOT4PRINT   00450954     uuid:cguid_i.obj
 0002:00007964       _GUID_DEVCLASS_ENUM1394    00450964     uuid:cguid_i.obj
 0002:00007974       _GUID_DEVCLASS_FDC         00450974     uuid:cguid_i.obj
 0002:00007984       _GUID_DEVCLASS_FLOPPYDISK  00450984     uuid:cguid_i.obj
 0002:00007994       _GUID_DEVCLASS_GPS         00450994     uuid:cguid_i.obj
 0002:000079a4       _GUID_DEVCLASS_HDC         004509a4     uuid:cguid_i.obj
 0002:000079b4       _GUID_DEVCLASS_HIDCLASS    004509b4     uuid:cguid_i.obj
 0002:000079c4       _GUID_DEVCLASS_IMAGE       004509c4     uuid:cguid_i.obj
 0002:000079d4       _GUID_DEVCLASS_INFINIBAND  004509d4     uuid:cguid_i.obj
 0002:000079e4       _GUID_DEVCLASS_INFRARED    004509e4     uuid:cguid_i.obj
 0002:000079f4       _GUID_DEVCLASS_KEYBOARD    004509f4     uuid:cguid_i.obj
 0002:00007a04       _GUID_DEVCLASS_LEGACYDRIVER 00450a04     uuid:cguid_i.obj
 0002:00007a14       _GUID_DEVCLASS_MEDIA       00450a14     uuid:cguid_i.obj
 0002:00007a24       _GUID_DEVCLASS_MEDIUM_CHANGER 00450a24     uuid:cguid_i.obj
 0002:00007a34       _GUID_DEVCLASS_MEMORY      00450a34     uuid:cguid_i.obj
 0002:00007a44       _GUID_DEVCLASS_MODEM       00450a44     uuid:cguid_i.obj
 0002:00007a54       _GUID_DEVCLASS_MONITOR     00450a54     uuid:cguid_i.obj
 0002:00007a64       _GUID_DEVCLASS_MOUSE       00450a64     uuid:cguid_i.obj
 0002:00007a74       _GUID_DEVCLASS_MTD         00450a74     uuid:cguid_i.obj
 0002:00007a84       _GUID_DEVCLASS_MULTIFUNCTION 00450a84     uuid:cguid_i.obj
 0002:00007a94       _GUID_DEVCLASS_MULTIPORTSERIAL 00450a94     uuid:cguid_i.obj
 0002:00007aa4       _GUID_DEVCLASS_NET         00450aa4     uuid:cguid_i.obj
 0002:00007ab4       _GUID_DEVCLASS_NETCLIENT   00450ab4     uuid:cguid_i.obj
 0002:00007ac4       _GUID_DEVCLASS_NETSERVICE  00450ac4     uuid:cguid_i.obj
 0002:00007ad4       _GUID_DEVCLASS_NETTRANS    00450ad4     uuid:cguid_i.obj
 0002:00007ae4       _GUID_DEVCLASS_NODRIVER    00450ae4     uuid:cguid_i.obj
 0002:00007af4       _GUID_DEVCLASS_PCMCIA      00450af4     uuid:cguid_i.obj
 0002:00007b04       _GUID_DEVCLASS_PNPPRINTERS 00450b04     uuid:cguid_i.obj
 0002:00007b14       _GUID_DEVCLASS_PORTS       00450b14     uuid:cguid_i.obj
 0002:00007b24       _GUID_DEVCLASS_PRINTER     00450b24     uuid:cguid_i.obj
 0002:00007b34       _GUID_DEVCLASS_PRINTERUPGRADE 00450b34     uuid:cguid_i.obj
 0002:00007b44       _GUID_DEVCLASS_PROCESSOR   00450b44     uuid:cguid_i.obj
 0002:00007b54       _GUID_DEVCLASS_SBP2        00450b54     uuid:cguid_i.obj
 0002:00007b64       _GUID_DEVCLASS_SCSIADAPTER 00450b64     uuid:cguid_i.obj
 0002:00007b74       _GUID_DEVCLASS_SECURITYACCELERATOR 00450b74     uuid:cguid_i.obj
 0002:00007b84       _GUID_DEVCLASS_SENSOR      00450b84     uuid:cguid_i.obj
 0002:00007b94       _GUID_DEVCLASS_SIDESHOW    00450b94     uuid:cguid_i.obj
 0002:00007ba4       _GUID_DEVCLASS_SMARTCARDREADER 00450ba4     uuid:cguid_i.obj
 0002:00007bb4       _GUID_DEVCLASS_SOUND       00450bb4     uuid:cguid_i.obj
 0002:00007bc4       _GUID_DEVCLASS_SYSTEM      00450bc4     uuid:cguid_i.obj
 0002:00007bd4       _GUID_DEVCLASS_TAPEDRIVE   00450bd4     uuid:cguid_i.obj
 0002:00007be4       _GUID_DEVCLASS_UNKNOWN     00450be4     uuid:cguid_i.obj
 0002:00007bf4       _GUID_DEVCLASS_USB         00450bf4     uuid:cguid_i.obj
 0002:00007c04       _GUID_DEVCLASS_VOLUME      00450c04     uuid:cguid_i.obj
 0002:00007c14       _GUID_DEVCLASS_VOLUMESNAPSHOT 00450c14     uuid:cguid_i.obj
 0002:00007c24       _GUID_DEVCLASS_WCEUSBS     00450c24     uuid:cguid_i.obj
 0002:00007c34       _GUID_DEVCLASS_WPD         00450c34     uuid:cguid_i.obj
 0002:00007c44       _GUID_DEVCLASS_EHSTORAGESILO 00450c44     uuid:cguid_i.obj
 0002:00007c54       _GUID_DEVCLASS_FIRMWARE    00450c54     uuid:cguid_i.obj
 0002:00007c64       _GUID_DEVCLASS_EXTENSION   00450c64     uuid:cguid_i.obj
 0002:00007c74       _GUID_DEVCLASS_FSFILTER_TOP 00450c74     uuid:cguid_i.obj
 0002:00007c84       _GUID_DEVCLASS_FSFILTER_ACTIVITYMONITOR 00450c84     uuid:cguid_i.obj
 0002:00007c94       _GUID_DEVCLASS_FSFILTER_UNDELETE 00450c94     uuid:cguid_i.obj
 0002:00007ca4       _GUID_DEVCLASS_FSFILTER_ANTIVIRUS 00450ca4     uuid:cguid_i.obj
 0002:00007cb4       _GUID_DEVCLASS_FSFILTER_REPLICATION 00450cb4     uuid:cguid_i.obj
 0002:00007cc4       _GUID_DEVCLASS_FSFILTER_CONTINUOUSBACKUP 00450cc4     uuid:cguid_i.obj
 0002:00007cd4       _GUID_DEVCLASS_FSFILTER_CONTENTSCREENER 00450cd4     uuid:cguid_i.obj
 0002:00007ce4       _GUID_DEVCLASS_FSFILTER_QUOTAMANAGEMENT 00450ce4     uuid:cguid_i.obj
 0002:00007cf4       _GUID_DEVCLASS_FSFILTER_SYSTEMRECOVERY 00450cf4     uuid:cguid_i.obj
 0002:00007d04       _GUID_DEVCLASS_FSFILTER_CFSMETADATASERVER 00450d04     uuid:cguid_i.obj
 0002:00007d14       _GUID_DEVCLASS_FSFILTER_HSM 00450d14     uuid:cguid_i.obj
 0002:00007d24       _GUID_DEVCLASS_FSFILTER_COMPRESSION 00450d24     uuid:cguid_i.obj
 0002:00007d34       _GUID_DEVCLASS_FSFILTER_ENCRYPTION 00450d34     uuid:cguid_i.obj
 0002:00007d44       _GUID_DEVCLASS_FSFILTER_VIRTUALIZATION 00450d44     uuid:cguid_i.obj
 0002:00007d54       _GUID_DEVCLASS_FSFILTER_PHYSICALQUOTAMANAGEMENT 00450d54     uuid:cguid_i.obj
 0002:00007d64       _GUID_DEVCLASS_FSFILTER_OPENFILEBACKUP 00450d64     uuid:cguid_i.obj
 0002:00007d74       _GUID_DEVCLASS_FSFILTER_SECURITYENHANCER 00450d74     uuid:cguid_i.obj
 0002:00007d84       _GUID_DEVCLASS_FSFILTER_COPYPROTECTION 00450d84     uuid:cguid_i.obj
 0002:00007d94       _GUID_DEVCLASS_FSFILTER_BOTTOM 00450d94     uuid:cguid_i.obj
 0002:00007da4       _GUID_DEVCLASS_FSFILTER_SYSTEM 00450da4     uuid:cguid_i.obj
 0002:00007db4       _GUID_DEVCLASS_FSFILTER_INFRASTRUCTURE 00450db4     uuid:cguid_i.obj
 0002:00007dc4       _GUID_DEVINTERFACE_DISK    00450dc4     uuid:cguid_i.obj
 0002:00007dd4       _GUID_DEVINTERFACE_CDROM   00450dd4     uuid:cguid_i.obj
 0002:00007de4       _GUID_DEVINTERFACE_PARTITION 00450de4     uuid:cguid_i.obj
 0002:00007df4       _GUID_DEVINTERFACE_TAPE    00450df4     uuid:cguid_i.obj
 0002:00007e04       _GUID_DEVINTERFACE_WRITEONCEDISK 00450e04     uuid:cguid_i.obj
 0002:00007e14       _GUID_DEVINTERFACE_VOLUME  00450e14     uuid:cguid_i.obj
 0002:00007e24       _GUID_DEVINTERFACE_MEDIUMCHANGER 00450e24     uuid:cguid_i.obj
 0002:00007e34       _GUID_DEVINTERFACE_FLOPPY  00450e34     uuid:cguid_i.obj
 0002:00007e44       _GUID_DEVINTERFACE_CDCHANGER 00450e44     uuid:cguid_i.obj
 0002:00007e54       _GUID_DEVINTERFACE_STORAGEPORT 00450e54     uuid:cguid_i.obj
 0002:00007e64       _GUID_DEVINTERFACE_VMLUN   00450e64     uuid:cguid_i.obj
 0002:00007e74       _GUID_DEVINTERFACE_SES     00450e74     uuid:cguid_i.obj
 0002:00007e84       _GUID_DEVINTERFACE_HIDDEN_VOLUME 00450e84     uuid:cguid_i.obj
 0002:00007e94       _GUID_DEVINTERFACE_COMPORT 00450e94     uuid:cguid_i.obj
 0002:00007ea4       _GUID_DEVINTERFACE_SERENUM_BUS_ENUMERATOR 00450ea4     uuid:cguid_i.obj
 0002:00007eb4       _GUID_ATLVer30             00450eb4     atls:atlbase.obj
 0002:00007ec4       _GUID_ATLVer70             00450ec4     atls:atlbase.obj
 0002:00007ed4       _GUID_ATLVer100            00450ed4     atls:atlbase.obj
 0002:00007ee4       _GUID_ATLVer110            00450ee4     atls:atlbase.obj
 0002:00007ef8       ??_C@_1IC@ONKHOIDK@?$AAE?$AAR?$AAR?$AAO?$AAR?$AA?5?$AA?3?$AA?5?$AAU?$AAn?$AAa?$AAb?$AAl?$AAe?$AA?5?$AAt?$AAo?$AA?5?$AAi?$AAn?$AAi?$AAt?$AAi?$AAa?$AAl?$AAi?$AAz?$AAe?$AA?5?$AAc?$AAr?$AAi@ 00450ef8     atls:atlbase.obj
 0002:00007f7c       ??_C@_0DH@EMOHNEGB@f?3?2dd?2vctools?2vc7libs?2ship?2atlmf@ 00450f7c     mfcs120ud:appmodul.obj
 0002:00007fb8       __load_config_used         00450fb8     msvcrtd:loadcfg.obj
 0002:00008ae8       ??_R1A@?0A@EA@CObject@@8   00451ae8     AftRegDlg.obj
 0002:00008b0c       ??_R3CObject@@8            00451b0c     AftRegDlg.obj
 0002:00008b20       ??_R2CObject@@8            00451b20     AftRegDlg.obj
 0002:00008b28       ??_R1A@?0A@EA@CDialog@@8   00451b28     AftRegDlg.obj
 0002:00008b4c       ??_R3CDialog@@8            00451b4c     AftRegDlg.obj
 0002:00008b60       ??_R2CDialog@@8            00451b60     AftRegDlg.obj
 0002:00008b74       ??_R1A@?0A@EA@CWnd@@8      00451b74     AftRegDlg.obj
 0002:00008b98       ??_R3CWnd@@8               00451b98     AftRegDlg.obj
 0002:00008bac       ??_R2CWnd@@8               00451bac     AftRegDlg.obj
 0002:00008bbc       ??_R1A@?0A@EA@CCmdTarget@@8 00451bbc     AftRegDlg.obj
 0002:00008be0       ??_R3CCmdTarget@@8         00451be0     AftRegDlg.obj
 0002:00008bf4       ??_R2CCmdTarget@@8         00451bf4     AftRegDlg.obj
 0002:00008c00       ??_R13?0A@EA@GdiplusBase@Gdiplus@@8 00451c00     AftRegDlg.obj
 0002:00008c24       ??_R3GdiplusBase@Gdiplus@@8 00451c24     AftRegDlg.obj
 0002:00008c38       ??_R2GdiplusBase@Gdiplus@@8 00451c38     AftRegDlg.obj
 0002:00008c40       ??_R1A@?0A@EA@GdiplusBase@Gdiplus@@8 00451c40     AftRegDlg.obj
 0002:00008c64       ??_R4Bitmap@Gdiplus@@6B@   00451c64     AftRegDlg.obj
 0002:00008c7c       ??_R3Bitmap@Gdiplus@@8     00451c7c     AftRegDlg.obj
 0002:00008c90       ??_R2Bitmap@Gdiplus@@8     00451c90     AftRegDlg.obj
 0002:00008ca0       ??_R1A@?0A@EA@Bitmap@Gdiplus@@8 00451ca0     AftRegDlg.obj
 0002:00008cc4       ??_R1A@?0A@EA@Image@Gdiplus@@8 00451cc4     AftRegDlg.obj
 0002:00008ce8       ??_R3Image@Gdiplus@@8      00451ce8     AftRegDlg.obj
 0002:00008cfc       ??_R2Image@Gdiplus@@8      00451cfc     AftRegDlg.obj
 0002:00008d08       ??_R4Image@Gdiplus@@6B@    00451d08     AftRegDlg.obj
 0002:00008d20       ??_R4CImage@ATL@@6B@       00451d20     AftRegDlg.obj
 0002:00008d38       ??_R3CImage@ATL@@8         00451d38     AftRegDlg.obj
 0002:00008d4c       ??_R2CImage@ATL@@8         00451d4c     AftRegDlg.obj
 0002:00008d54       ??_R1A@?0A@EA@CImage@ATL@@8 00451d54     AftRegDlg.obj
 0002:00008d78       ??_R4AftRegDlg@@6B@        00451d78     AftRegDlg.obj
 0002:00008d90       ??_R3AftRegDlg@@8          00451d90     AftRegDlg.obj
 0002:00008da4       ??_R2AftRegDlg@@8          00451da4     AftRegDlg.obj
 0002:00008dc0       ??_R1A@?0A@EA@AftRegDlg@@8 00451dc0     AftRegDlg.obj
 0002:00008de4       ??_R4CDWT@@6B@             00451de4     DWT.obj
 0002:00008dfc       ??_R3CDWT@@8               00451dfc     DWT.obj
 0002:00008e10       ??_R2CDWT@@8               00451e10     DWT.obj
 0002:00008e18       ??_R1A@?0A@EA@CDWT@@8      00451e18     DWT.obj
 0002:00008e3c       ??_R4CImageMosaicApp@@6B@  00451e3c     ImageMosaic.obj
 0002:00008e54       ??_R3CImageMosaicApp@@8    00451e54     ImageMosaic.obj
 0002:00008e68       ??_R2CImageMosaicApp@@8    00451e68     ImageMosaic.obj
 0002:00008e84       ??_R1A@?0A@EA@CImageMosaicApp@@8 00451e84     ImageMosaic.obj
 0002:00008ea8       ??_R1A@?0A@EA@CWinApp@@8   00451ea8     ImageMosaic.obj
 0002:00008ecc       ??_R3CWinApp@@8            00451ecc     ImageMosaic.obj
 0002:00008ee0       ??_R2CWinApp@@8            00451ee0     ImageMosaic.obj
 0002:00008ef4       ??_R1A@?0A@EA@CWinThread@@8 00451ef4     ImageMosaic.obj
 0002:00008f18       ??_R3CWinThread@@8         00451f18     ImageMosaic.obj
 0002:00008f2c       ??_R2CWinThread@@8         00451f2c     ImageMosaic.obj
 0002:00008f3c       ??_R4CImageMosaicDlg@@6B@  00451f3c     ImageMosaicDlg.obj
 0002:00008f54       ??_R3CImageMosaicDlg@@8    00451f54     ImageMosaicDlg.obj
 0002:00008f68       ??_R2CImageMosaicDlg@@8    00451f68     ImageMosaicDlg.obj
 0002:00008f84       ??_R1A@?0A@EA@CImageMosaicDlg@@8 00451f84     ImageMosaicDlg.obj
 0002:00008fa8       ??_R4CAboutDlg@@6B@        00451fa8     ImageMosaicDlg.obj
 0002:00008fc0       ??_R3CAboutDlg@@8          00451fc0     ImageMosaicDlg.obj
 0002:00008fd4       ??_R2CAboutDlg@@8          00451fd4     ImageMosaicDlg.obj
 0002:00008ff0       ??_R1A@?0A@EA@CAboutDlg@@8 00451ff0     ImageMosaicDlg.obj
 0002:00009014       ??_R4CWin32Heap@ATL@@6B@   00452014     stdafx.obj
 0002:0000902c       ??_R3CWin32Heap@ATL@@8     0045202c     stdafx.obj
 0002:00009040       ??_R2CWin32Heap@ATL@@8     00452040     stdafx.obj
 0002:0000904c       ??_R1A@?0A@EA@CWin32Heap@ATL@@8 0045204c     stdafx.obj
 0002:00009070       ??_R1A@?0A@EA@IAtlMemMgr@ATL@@8 00452070     stdafx.obj
 0002:00009094       ??_R3IAtlMemMgr@ATL@@8     00452094     stdafx.obj
 0002:000090a8       ??_R2IAtlMemMgr@ATL@@8     004520a8     stdafx.obj
 0002:000090b0       ??_R1A@?0A@EA@IAtlStringMgr@ATL@@8 004520b0     stdafx.obj
 0002:000090d4       ??_R3IAtlStringMgr@ATL@@8  004520d4     stdafx.obj
 0002:000090e8       ??_R2IAtlStringMgr@ATL@@8  004520e8     stdafx.obj
 0002:000090f0       ??_R4CAtlStringMgr@ATL@@6B@ 004520f0     stdafx.obj
 0002:00009108       ??_R3CAtlStringMgr@ATL@@8  00452108     stdafx.obj
 0002:0000911c       ??_R2CAtlStringMgr@ATL@@8  0045211c     stdafx.obj
 0002:00009128       ??_R1A@?0A@EA@CAtlStringMgr@ATL@@8 00452128     stdafx.obj
 0002:0000914c       ??_R4type_info@@6B@        0045214c     msvcrtd:ti_inst.obj
 0002:00009160       ??_R3type_info@@8          00452160     msvcrtd:ti_inst.obj
 0002:00009170       ??_R2type_info@@8          00452170     msvcrtd:ti_inst.obj
 0002:00009178       ??_R1A@?0A@EA@type_info@@8 00452178     msvcrtd:ti_inst.obj
 0002:000092d0       ___safe_se_handler_table   004522d0     <linker-defined>
 0002:0000957c       ___rtc_iaa                 0045257c     msvcrtd:initsect.obj
 0002:000097ac       ___rtc_izz                 004527ac     msvcrtd:initsect.obj
 0002:000098b0       ___rtc_taa                 004528b0     msvcrtd:initsect.obj
 0002:00009ae0       ___rtc_tzz                 00452ae0     msvcrtd:initsect.obj
 0002:0000b8fc       ___pobjMapEntryFirst       004548fc     stdafx.obj
 0002:0000ba00       ___pobjMapEntryLast        00454a00     stdafx.obj
 0003:00000000       ?m_nCategory@CTrace@ATL@@1IA 00455000     AftRegDlg.obj
 0003:00000004       __pIncludeInitManaged      00455004     stdafx.obj
 0003:00000008       _WinbaseIsolationAwarePrivateT_UnPgpgk 00455008     mfcs120ud:nolib.obj
 0003:00000010       ___security_cookie         00455010     msvcrtd:gs_cookie.obj
 0003:00000014       ___security_cookie_complement 00455014     msvcrtd:gs_cookie.obj
 0003:00000020       ___defaultmatherr          00455020     msvcrtd:merr.obj
 0003:00000024       ___globallocalestatus      00455024     msvcrtd:xthdloc.obj
 0003:00000028       ___native_dllmain_reason   00455028     msvcrtd:natstart.obj
 0003:0000002c       ?_RTC_ErrorLevels@@3PAHA   0045502c     msvcrtd:error.obj
 0003:0000014c       ??_R0?AVCObject@@@8        0045514c     AftRegDlg.obj
 0003:00000168       ??_R0?AVCDialog@@@8        00455168     AftRegDlg.obj
 0003:00000184       ??_R0?AVCWnd@@@8           00455184     AftRegDlg.obj
 0003:0000019c       ??_R0?AVCCmdTarget@@@8     0045519c     AftRegDlg.obj
 0003:000001bc       ??_R0?AVGdiplusBase@Gdiplus@@@8 004551bc     AftRegDlg.obj
 0003:000001e4       ??_R0?AVBitmap@Gdiplus@@@8 004551e4     AftRegDlg.obj
 0003:00000208       ??_R0?AVImage@Gdiplus@@@8  00455208     AftRegDlg.obj
 0003:0000022c       ??_R0?AVCImage@ATL@@@8     0045522c     AftRegDlg.obj
 0003:0000024c       ??_R0?AVAftRegDlg@@@8      0045524c     AftRegDlg.obj
 0003:00000268       ??_R0?AVCDWT@@@8           00455268     DWT.obj
 0003:00000280       ??_R0?AVCImageMosaicApp@@@8 00455280     ImageMosaic.obj
 0003:000002a4       ??_R0?AVCWinApp@@@8        004552a4     ImageMosaic.obj
 0003:000002c0       ??_R0?AVCWinThread@@@8     004552c0     ImageMosaic.obj
 0003:000002e0       ??_R0?AVCImageMosaicDlg@@@8 004552e0     ImageMosaicDlg.obj
 0003:00000304       ??_R0?AVCAboutDlg@@@8      00455304     ImageMosaicDlg.obj
 0003:00000320       ??_R0?AVCWin32Heap@ATL@@@8 00455320     stdafx.obj
 0003:00000344       ??_R0?AUIAtlMemMgr@ATL@@@8 00455344     stdafx.obj
 0003:00000368       ??_R0?AUIAtlStringMgr@ATL@@@8 00455368     stdafx.obj
 0003:00000390       ??_R0?AVCAtlStringMgr@ATL@@@8 00455390     stdafx.obj
 0003:000003b8       ??_R0?AVtype_info@@@8      004553b8     msvcrtd:ti_inst.obj
 0003:00000528       ?m_nLevel@CTrace@ATL@@1IA  00455528     AftRegDlg.obj
 0003:0000052c       ?m_nLastCategory@CTrace@ATL@@1IA 0045552c     AftRegDlg.obj
 0003:00000530       ?m_nMap@CTrace@ATL@@1PAUCategoryMap@12@A 00455530     AftRegDlg.obj
 0003:00002c30       ?atlTraceException@ATL@@3V?$CTraceCategoryEx@$0CAAA@$0A@@1@A 00457c30     AftRegDlg.obj
 0003:00002c34       ?atlTraceString@ATL@@3V?$CTraceCategoryEx@$0CAAAA@$0A@@1@A 00457c34     AftRegDlg.obj
 0003:00002c38       ?isCImageStaticInitialized@CImage@ATL@@0_NA 00457c38     AftRegDlg.obj
 0003:00002c3c       ?gdiPlus@?1??GetInitGDIPlusInstance@CImage@ATL@@CAPAVCInitGDIPlus@23@XZ@4V423@A 00457c3c     AftRegDlg.obj
 0003:00002c68       ??_B?1??GetInitGDIPlusInstance@CImage@ATL@@CAPAVCInitGDIPlus@12@XZ@51 00457c68     AftRegDlg.obj
 0003:00002c6c       ?cache@?1??GetCDCCacheInstance@CImage@ATL@@CAPAVCDCCache@23@XZ@4V423@A 00457c6c     AftRegDlg.obj
 0003:00002c80       ??_B?1??GetCDCCacheInstance@CImage@ATL@@CAPAVCDCCache@12@XZ@51 00457c80     AftRegDlg.obj
 0003:00002ccc       ?H@@3PAMA                  00457ccc     HarrisCorners.obj
 0003:00002cf4       ?InvH@@3PAMA               00457cf4     HarrisCorners.obj
 0003:00002d18       ?RansacPoints3@@3PAU_PAIR2@@A 00457d18     HarrisCorners.obj
 0003:00002d24       ?RansacPoints2@@3PAU_PAIR2@@A 00457d24     HarrisCorners.obj
 0003:00002d28       ?RansacPoints1@@3PAU_PAIR2@@A 00457d28     HarrisCorners.obj
 0003:00002d34       ?RansacPoints0@@3PAU_PAIR2@@A 00457d34     HarrisCorners.obj
 0003:00002d38       ?m_nNum3@@3HA              00457d38     HarrisCorners.obj
 0003:00002d44       ?m_nNum2@@3HA              00457d44     HarrisCorners.obj
 0003:00002d48       ?m_nNum1@@3HA              00457d48     HarrisCorners.obj
 0003:00002d4c       ?m_nNum0@@3HA              00457d4c     HarrisCorners.obj
 0003:00002d64       ?m_listTribl@@3V?$list@U_PAIR@@V?$allocator@U_PAIR@@@std@@@std@@A 00457d64     HarrisCorners.obj
 0003:00002d70       ?m_listTwice@@3V?$list@U_PAIR2@@V?$allocator@U_PAIR2@@@std@@@std@@A 00457d70     HarrisCorners.obj
 0003:00002d7c       ?m_listOnce@@3V?$list@U_PAIR2@@V?$allocator@U_PAIR2@@@std@@@std@@A 00457d7c     HarrisCorners.obj
 0003:00002d88       ?m_listOrigin@@3V?$list@U_PAIR2@@V?$allocator@U_PAIR2@@@std@@@std@@A 00457d88     HarrisCorners.obj
 0003:00002df8       ?theApp@@3VCImageMosaicApp@@A 00457df8     ImageMosaic.obj
 0003:00002f38       ___@@_PchSym_@00@UdcbKluKpmKptKltKpzKpyKlsKqvKouKlrKrvKqyKltKorKruKlsKpqKopKlvKopKrtUKluKplKqlKlqKppKrnKluKplKpvKlsKqpKrvKluKrqKrmKlrKolKrrKlvKooKpnKlsKqpKrvKlrKouKrvKltKqtKqqUKluKqoKolKluKrwKrkKlsKooKrvKltKpkKquKlvKorKqpKlsKqvKqkKltKorKruKluKrmKquUKluKrrKqrKlsKpwKrpRKltKpkKquKlvKorKqpKltKorKruKluKrmKquUKlrKomKpkKlvKooKotKltKopKqzKlvKooKpwKlsKpzKryUnfogrPrnztvLnlhzrxUrnztvnlhzrxUrnztvnlhzrxUwvyftUhgwzucOlyq@61A783FC55AB6E96 00457f38     stdafx.obj
 0003:00002f3c       ?_pAtlAutoThreadModule@ATL@@3PAUIAtlAutoThreadModule@1@A 00457f3c     stdafx.obj
 0003:00002f40       ?s_pfnPrevHook@CNoUIAssertHook@ATL@@0P6AHHPADPAH@ZA 00457f40     stdafx.obj
 0003:00002f44       ?_pAtlModule@ATL@@3PAVCAtlModule@1@A 00457f44     stdafx.obj
 0003:00002f48       ?m_libid@CAtlModule@ATL@@2U_GUID@@A 00457f48     stdafx.obj
 0003:00002f5c       ?s_pLog@CFixedStringMgr@ATL@@2PAVIFixedStringLog@2@A 00457f5c     stdafx.obj
 0003:00002f60       ?_pModule@ATL@@3PAVCComModule@1@A 00457f60     stdafx.obj
 0003:00002f64       ?_pPerfRegFunc@ATL@@3P6AJPAUHINSTANCE__@@@ZA 00457f64     stdafx.obj
 0003:00002f68       ?_pPerfUnRegFunc@ATL@@3P6AJXZA 00457f68     stdafx.obj
 0003:00002f6c       ?_AtlRegisterPerUser@ATL@@3_NA 00457f6c     stdafx.obj
 0003:00002f6d       ?m_bInitFailed@CAtlBaseModule@ATL@@2_NA 00457f6d     stdafx.obj
 0003:00002f70       ?ATL_CREATE_OBJECT@CComApartment@ATL@@2IA 00457f70     stdafx.obj
 0003:00002f74       ?atlTraceGeneral@ATL@@3V?$CTraceCategoryEx@$00$0A@@1@A 00457f74     stdafx.obj
 0003:00002f78       ?atlTraceCOM@ATL@@3V?$CTraceCategoryEx@$01$0A@@1@A 00457f78     stdafx.obj
 0003:00002f7c       ?atlTraceQI@ATL@@3V?$CTraceCategoryEx@$03$0A@@1@A 00457f7c     stdafx.obj
 0003:00002f80       ?atlTraceRegistrar@ATL@@3V?$CTraceCategoryEx@$07$0A@@1@A 00457f80     stdafx.obj
 0003:00002f84       ?atlTraceRefcount@ATL@@3V?$CTraceCategoryEx@$0BA@$0A@@1@A 00457f84     stdafx.obj
 0003:00002f88       ?atlTraceWindowing@ATL@@3V?$CTraceCategoryEx@$0CA@$0A@@1@A 00457f88     stdafx.obj
 0003:00002f8c       ?atlTraceControls@ATL@@3V?$CTraceCategoryEx@$0EA@$0A@@1@A 00457f8c     stdafx.obj
 0003:00002f90       ?atlTraceHosting@ATL@@3V?$CTraceCategoryEx@$0IA@$0A@@1@A 00457f90     stdafx.obj
 0003:00002f94       ?atlTraceDBClient@ATL@@3V?$CTraceCategoryEx@$0BAA@$0A@@1@A 00457f94     stdafx.obj
 0003:00002f98       ?atlTraceDBProvider@ATL@@3V?$CTraceCategoryEx@$0CAA@$0A@@1@A 00457f98     stdafx.obj
 0003:00002f9c       ?atlTraceSnapin@ATL@@3V?$CTraceCategoryEx@$0EAA@$0A@@1@A 00457f9c     stdafx.obj
 0003:00002fa0       ?atlTraceNotImpl@ATL@@3V?$CTraceCategoryEx@$0IAA@$0A@@1@A 00457fa0     stdafx.obj
 0003:00002fa4       ?atlTraceAllocation@ATL@@3V?$CTraceCategoryEx@$0BAAA@$0A@@1@A 00457fa4     stdafx.obj
 0003:00002fa8       ?atlTraceTime@ATL@@3V?$CTraceCategoryEx@$0EAAA@$0A@@1@A 00457fa8     stdafx.obj
 0003:00002fac       ?atlTraceCache@ATL@@3V?$CTraceCategoryEx@$0IAAA@$0A@@1@A 00457fac     stdafx.obj
 0003:00002fb0       ?atlTraceStencil@ATL@@3V?$CTraceCategoryEx@$0BAAAA@$0A@@1@A 00457fb0     stdafx.obj
 0003:00002fb4       ?atlTraceMap@ATL@@3V?$CTraceCategoryEx@$0EAAAA@$0A@@1@A 00457fb4     stdafx.obj
 0003:00002fb8       ?atlTraceUtil@ATL@@3V?$CTraceCategoryEx@$0IAAAA@$0A@@1@A 00457fb8     stdafx.obj
 0003:00002fbc       ?atlTraceSecurity@ATL@@3V?$CTraceCategoryEx@$0BAAAAA@$0A@@1@A 00457fbc     stdafx.obj
 0003:00002fc0       ?atlTraceSync@ATL@@3V?$CTraceCategoryEx@$0CAAAAA@$0A@@1@A 00457fc0     stdafx.obj
 0003:00002fc4       ?atlTraceISAPI@ATL@@3V?$CTraceCategoryEx@$0EAAAAA@$0A@@1@A 00457fc4     stdafx.obj
 0003:00002fc8       ?_AtlComModule@ATL@@3VCAtlComModule@1@A 00457fc8     stdafx.obj
 0003:00002ff8       ?_AtlWinModule@ATL@@3VCAtlWinModule@1@A 00457ff8     stdafx.obj
 0003:0000302c       ?isInitialized@CAtlStringMgr@ATL@@0_NA 0045802c     stdafx.obj
 0003:00003030       ?strHeap@?1??GetInstance@CAtlStringMgr@ATL@@SAPAUIAtlStringMgr@3@XZ@4VCWin32Heap@3@A 00458030     stdafx.obj
 0003:00003040       ??_B?1??GetInstance@CAtlStringMgr@ATL@@SAPAUIAtlStringMgr@2@XZ@51 00458040     stdafx.obj
 0003:00003044       ?strMgr@?1??GetInstance@CAtlStringMgr@ATL@@SAPAUIAtlStringMgr@3@XZ@4V23@A 00458044     stdafx.obj
 0003:00003068       _IsolationAwarePrivateT_SqbjaYRiRY 00458068     mfcs120ud:nolib.obj
 0003:0000306c       _WinbaseIsolationAwarePrivateT_SpeRNgRQnPgpgk 0045806c     mfcs120ud:nolib.obj
 0003:00003070       _WinbaseIsolationAwarePrivateT_SpYRNahcpNYYRQ 00458070     mfcs120ud:nolib.obj
 0003:00003074       ?WM_DESTROYMODELESS@CDHtmlDialog@@1IA 00458074     mfcs120ud:nolib.obj
 0003:00003078       __afxForceEXCLUDE          00458078     mfcs120ud:nolib.obj
 0003:0000307c       ?s_pfn@?1??IsolationAwareCreateActCtxW@@9@4@4P6GPAXPBUtagACTCTXW@@@ZA 0045807c     mfcs120ud:nolib.obj
 0003:00003080       ?s_pfn@?1??IsolationAwareActivateActCtx@@9@8@4P6GHPAXPAK@ZA 00458080     mfcs120ud:nolib.obj
 0003:00003084       ?s_pfn@?1??IsolationAwareDeactivateActCtx@@9@8@4P6GHKK@ZA 00458084     mfcs120ud:nolib.obj
 0003:00003088       ?s_pfn@?1??IsolationAwareFindActCtxSectionStringW@@9@20@4P6GHKPBU_GUID@@KPB_WPAUtagACTCTX_SECTION_KEYED_DATA@@@ZA 00458088     mfcs120ud:nolib.obj
 0003:0000308c       ?s_pfn@?1??IsolationAwareQueryActCtxW@@9@28@4P6GHKPAX0K0KPAK@ZA 0045808c     mfcs120ud:nolib.obj
 0003:00003090       ?m@?1??WinbaseIsolationAwarePrivatetRgCebPnQQeRff_xReaRYQP_QYY@@9@4@4UIsolationAwarePrivate_zHGnoyr_zBqHyr_vAsB@@A 00458090     mfcs120ud:nolib.obj
 0003:00003094       __afxForceSTDAFX           00458094     mfcs120ud:stdafx.obj
 0003:000030bc       __commode                  004580bc     msvcrtd:xncommod.obj
 0003:000030c0       __dowildcard               004580c0     msvcrtd:wildcard.obj
 0003:000030c4       __newmode                  004580c4     msvcrtd:_newmode.obj
 0003:000030c8       __fmode                    004580c8     msvcrtd:xtxtmode.obj
 0003:000030cc       ?wsprintffp@@3P6AHPADPBDZZA 004580cc     msvcrtd:error.obj
 0003:00003400       ?_AtlBaseModule@ATL@@3VCAtlBaseModule@1@A 00458400     atls:atlbase.obj
 0003:00003438       ___@@_PchSym_@00@UwwUexgllohUexHoryhUhsrkUzgonuxUhixUzgoUzgohUlyqBiUrDIGUhgwzucOlyq@78CA5F0B165856AC 00458438     atls:stdafx.obj
 0003:0000343c       ?_afxInitAppState@@3DA     0045843c     mfcs120ud:appmodul.obj
 0003:00003440       ___native_startup_lock     00458440     <common>
 0003:00003450       ___native_startup_state    00458450     <common>
 0003:00003454       ___onexitend               00458454     <common>
 0003:00003464       ___onexitbegin             00458464     <common>
 0003:00003468       ___dyn_tls_init_callback   00458468     <common>
 0004:00000000       __imp__InitCommonControlsEx@4 00459000     comctl32:COMCTL32.dll
 0004:00000004       \177COMCTL32_NULL_THUNK_DATA 00459004     comctl32:COMCTL32.dll
 0004:00000030       __imp__DeleteObject@4      00459030     gdi32:GDI32.dll
 0004:00000034       __imp__SelectObject@8      00459034     gdi32:GDI32.dll
 0004:00000038       __imp__StretchBlt@44       00459038     gdi32:GDI32.dll
 0004:0000003c       __imp__SetStretchBltMode@8 0045903c     gdi32:GDI32.dll
 0004:00000040       __imp__DeleteDC@4          00459040     gdi32:GDI32.dll
 0004:00000044       __imp__GetDIBColorTable@16 00459044     gdi32:GDI32.dll
 0004:00000048       __imp__SetDIBColorTable@16 00459048     gdi32:GDI32.dll
 0004:0000004c       __imp__GetObjectW@12       0045904c     gdi32:GDI32.dll
 0004:00000050       __imp__SetBrushOrgEx@16    00459050     gdi32:GDI32.dll
 0004:00000054       __imp__CreateDIBSection@24 00459054     gdi32:GDI32.dll
 0004:00000058       __imp__CreateCompatibleDC@4 00459058     gdi32:GDI32.dll
 0004:0000005c       \177GDI32_NULL_THUNK_DATA  0045905c     gdi32:GDI32.dll
 0004:00000090       __imp__HeapReAlloc@16      00459090     kernel32:KERNEL32.dll
 0004:00000094       __imp__HeapAlloc@12        00459094     kernel32:KERNEL32.dll
 0004:00000098       __imp__HeapDestroy@4       00459098     kernel32:KERNEL32.dll
 0004:0000009c       __imp__RaiseException@16   0045909c     kernel32:KERNEL32.dll
 0004:000000a0       __imp__DecodePointer@4     004590a0     kernel32:KERNEL32.dll
 0004:000000a4       __imp__GetTickCount@0      004590a4     kernel32:KERNEL32.dll
 0004:000000a8       __imp__DeleteCriticalSection@4 004590a8     kernel32:KERNEL32.dll
 0004:000000ac       __imp__InitializeCriticalSectionEx@12 004590ac     kernel32:KERNEL32.dll
 0004:000000b0       __imp__LeaveCriticalSection@4 004590b0     kernel32:KERNEL32.dll
 0004:000000b4       __imp__EnterCriticalSection@4 004590b4     kernel32:KERNEL32.dll
 0004:000000b8       __imp__OutputDebugStringW@4 004590b8     kernel32:KERNEL32.dll
 0004:000000bc       __imp__FreeLibrary@4       004590bc     kernel32:KERNEL32.dll
 0004:000000c0       __imp__VirtualQuery@12     004590c0     kernel32:KERNEL32.dll
 0004:000000c4       __imp__IsProcessorFeaturePresent@4 004590c4     kernel32:KERNEL32.dll
 0004:000000c8       __imp__WideCharToMultiByte@32 004590c8     kernel32:KERNEL32.dll
 0004:000000cc       __imp__MultiByteToWideChar@24 004590cc     kernel32:KERNEL32.dll
 0004:000000d0       __imp__LoadLibraryExW@12   004590d0     kernel32:KERNEL32.dll
 0004:000000d4       __imp__IsDebuggerPresent@0 004590d4     kernel32:KERNEL32.dll
 0004:000000d8       __imp__GetSystemTimeAsFileTime@4 004590d8     kernel32:KERNEL32.dll
 0004:000000dc       __imp__GetCurrentThreadId@0 004590dc     kernel32:KERNEL32.dll
 0004:000000e0       __imp__GetCurrentProcessId@0 004590e0     kernel32:KERNEL32.dll
 0004:000000e4       __imp__QueryPerformanceCounter@4 004590e4     kernel32:KERNEL32.dll
 0004:000000e8       __imp__EncodePointer@4     004590e8     kernel32:KERNEL32.dll
 0004:000000ec       __imp__LoadLibraryW@4      004590ec     kernel32:KERNEL32.dll
 0004:000000f0       __imp__GetProcAddress@8    004590f0     kernel32:KERNEL32.dll
 0004:000000f4       __imp__GetModuleHandleW@4  004590f4     kernel32:KERNEL32.dll
 0004:000000f8       __imp__GetModuleHandleA@4  004590f8     kernel32:KERNEL32.dll
 0004:000000fc       __imp__GetModuleFileNameW@12 004590fc     kernel32:KERNEL32.dll
 0004:00000100       __imp__InitializeCriticalSectionAndSpinCount@8 00459100     kernel32:KERNEL32.dll
 0004:00000104       __imp__SetLastError@4      00459104     kernel32:KERNEL32.dll
 0004:00000108       __imp__OutputDebugStringA@4 00459108     kernel32:KERNEL32.dll
 0004:0000010c       __imp__GetProcessHeap@0    0045910c     kernel32:KERNEL32.dll
 0004:00000110       __imp__HeapSize@12         00459110     kernel32:KERNEL32.dll
 0004:00000114       __imp__HeapFree@12         00459114     kernel32:KERNEL32.dll
 0004:00000118       __imp__GetLastError@0      00459118     kernel32:KERNEL32.dll
 0004:0000011c       \177KERNEL32_NULL_THUNK_DATA 0045911c     kernel32:KERNEL32.dll
 0004:00000164       __imp_??1_Lockit@std@@QAE@XZ 00459164     msvcprtd:MSVCP120D.dll
 0004:00000168       __imp_?_Debug_message@std@@YAXPB_W0I@Z 00459168     msvcprtd:MSVCP120D.dll
 0004:0000016c       __imp_??0_Container_base12@std@@QAE@XZ 0045916c     msvcprtd:MSVCP120D.dll
 0004:00000170       __imp_??1_Container_base12@std@@QAE@XZ 00459170     msvcprtd:MSVCP120D.dll
 0004:00000174       __imp_?_Getpfirst@_Container_base12@std@@QBEPAPAU_Iterator_base12@2@XZ 00459174     msvcprtd:MSVCP120D.dll
 0004:00000178       __imp_?_Orphan_all@_Container_base12@std@@QAEXXZ 00459178     msvcprtd:MSVCP120D.dll
 0004:0000017c       __imp_?_Xbad_alloc@std@@YAXXZ 0045917c     msvcprtd:MSVCP120D.dll
 0004:00000180       __imp_?_Xlength_error@std@@YAXPBD@Z 00459180     msvcprtd:MSVCP120D.dll
 0004:00000184       __imp_??0_Lockit@std@@QAE@H@Z 00459184     msvcprtd:MSVCP120D.dll
 0004:00000188       \177MSVCP120D_NULL_THUNK_DATA 00459188     msvcprtd:MSVCP120D.dll
 0004:000001b8       __imp___wsplitpath_s       004591b8     msvcrtd:MSVCR120D.dll
 0004:000001bc       __imp___wmakepath_s        004591bc     msvcrtd:MSVCR120D.dll
 0004:000001c0       __imp____crtTerminateProcess 004591c0     msvcrtd:MSVCR120D.dll
 0004:000001c4       __imp____crtUnhandledException 004591c4     msvcrtd:MSVCR120D.dll
 0004:000001c8       __imp___crt_debugger_hook  004591c8     msvcrtd:MSVCR120D.dll
 0004:000001cc       __imp___controlfp_s        004591cc     msvcrtd:MSVCR120D.dll
 0004:000001d0       __imp___invoke_watson      004591d0     msvcrtd:MSVCR120D.dll
 0004:000001d4       __imp____crtSetUnhandledExceptionFilter 004591d4     msvcrtd:MSVCR120D.dll
 0004:000001d8       __imp_?terminate@@YAXXZ    004591d8     msvcrtd:MSVCR120D.dll
 0004:000001dc       __imp_??1type_info@@UAE@XZ 004591dc     msvcrtd:MSVCR120D.dll
 0004:000001e0       __imp___except_handler4_common 004591e0     msvcrtd:MSVCR120D.dll
 0004:000001e4       __imp___CRT_RTC_INITW      004591e4     msvcrtd:MSVCR120D.dll
 0004:000001e8       __imp___onexit             004591e8     msvcrtd:MSVCR120D.dll
 0004:000001ec       __imp____dllonexit         004591ec     msvcrtd:MSVCR120D.dll
 0004:000001f0       __imp___calloc_dbg         004591f0     msvcrtd:MSVCR120D.dll
 0004:000001f4       __imp___unlock             004591f4     msvcrtd:MSVCR120D.dll
 0004:000001f8       __imp___lock               004591f8     msvcrtd:MSVCR120D.dll
 0004:000001fc       __imp___commode            004591fc     msvcrtd:MSVCR120D.dll
 0004:00000200       __imp___fmode              00459200     msvcrtd:MSVCR120D.dll
 0004:00000204       __imp___wcmdln             00459204     msvcrtd:MSVCR120D.dll
 0004:00000208       __imp___initterm           00459208     msvcrtd:MSVCR120D.dll
 0004:0000020c       __imp___initterm_e         0045920c     msvcrtd:MSVCR120D.dll
 0004:00000210       __imp____setusermatherr    00459210     msvcrtd:MSVCR120D.dll
 0004:00000214       __imp___configthreadlocale 00459214     msvcrtd:MSVCR120D.dll
 0004:00000218       __imp___cexit              00459218     msvcrtd:MSVCR120D.dll
 0004:0000021c       __imp___exit               0045921c     msvcrtd:MSVCR120D.dll
 0004:00000220       __imp__exit                00459220     msvcrtd:MSVCR120D.dll
 0004:00000224       __imp___CrtSetCheckCount   00459224     msvcrtd:MSVCR120D.dll
 0004:00000228       __imp____set_app_type      00459228     msvcrtd:MSVCR120D.dll
 0004:0000022c       __imp____wgetmainargs      0045922c     msvcrtd:MSVCR120D.dll
 0004:00000230       __imp___amsg_exit          00459230     msvcrtd:MSVCR120D.dll
 0004:00000234       __imp____crtGetShowWindowMode 00459234     msvcrtd:MSVCR120D.dll
 0004:00000238       __imp___XcptFilter         00459238     msvcrtd:MSVCR120D.dll
 0004:0000023c       __imp___getcwd             0045923c     msvcrtd:MSVCR120D.dll
 0004:00000240       __imp___recalloc           00459240     msvcrtd:MSVCR120D.dll
 0004:00000244       __imp__calloc              00459244     msvcrtd:MSVCR120D.dll
 0004:00000248       __imp___CxxThrowException@8 00459248     msvcrtd:MSVCR120D.dll
 0004:0000024c       __imp__sqrt                0045924c     msvcrtd:MSVCR120D.dll
 0004:00000250       __imp__log                 00459250     msvcrtd:MSVCR120D.dll
 0004:00000254       __imp__fabs                00459254     msvcrtd:MSVCR120D.dll
 0004:00000258       __imp__exp                 00459258     msvcrtd:MSVCR120D.dll
 0004:0000025c       __imp__atan                0045925c     msvcrtd:MSVCR120D.dll
 0004:00000260       __imp___time64             00459260     msvcrtd:MSVCR120D.dll
 0004:00000264       __imp__srand               00459264     msvcrtd:MSVCR120D.dll
 0004:00000268       __imp__rand                00459268     msvcrtd:MSVCR120D.dll
 0004:0000026c       __imp___invalid_parameter  0045926c     msvcrtd:MSVCR120D.dll
 0004:00000270       __imp____CxxFrameHandler3  00459270     msvcrtd:MSVCR120D.dll
 0004:00000274       __imp___CrtDbgReportW      00459274     msvcrtd:MSVCR120D.dll
 0004:00000278       __imp___resetstkoflw       00459278     msvcrtd:MSVCR120D.dll
 0004:0000027c       __imp__malloc              0045927c     msvcrtd:MSVCR120D.dll
 0004:00000280       __imp__free                00459280     msvcrtd:MSVCR120D.dll
 0004:00000284       __imp__labs                00459284     msvcrtd:MSVCR120D.dll
 0004:00000288       __imp__abs                 00459288     msvcrtd:MSVCR120D.dll
 0004:0000028c       __imp___vscwprintf         0045928c     msvcrtd:MSVCR120D.dll
 0004:00000290       __imp___vsnwprintf_s       00459290     msvcrtd:MSVCR120D.dll
 0004:00000294       __imp__swprintf_s          00459294     msvcrtd:MSVCR120D.dll
 0004:00000298       __imp__wcslen              00459298     msvcrtd:MSVCR120D.dll
 0004:0000029c       __imp__wcscpy_s            0045929c     msvcrtd:MSVCR120D.dll
 0004:000002a0       __imp__memset              004592a0     msvcrtd:MSVCR120D.dll
 0004:000002a4       __imp__memcpy_s            004592a4     msvcrtd:MSVCR120D.dll
 0004:000002a8       __imp__memcpy              004592a8     msvcrtd:MSVCR120D.dll
 0004:000002ac       __imp__memcmp              004592ac     msvcrtd:MSVCR120D.dll
 0004:000002b0       __imp__memmove_s           004592b0     msvcrtd:MSVCR120D.dll
 0004:000002b4       \177MSVCR120D_NULL_THUNK_DATA 004592b4     msvcrtd:MSVCR120D.dll
 0004:00000310       __imp__SysFreeString@4     00459310     oleaut32:OLEAUT32.dll
 0004:00000314       \177OLEAUT32_NULL_THUNK_DATA 00459314     oleaut32:OLEAUT32.dll
 0004:00000340       __imp__PathFindExtensionW@4 00459340     shlwapi:SHLWAPI.dll
 0004:00000344       \177SHLWAPI_NULL_THUNK_DATA 00459344     shlwapi:SHLWAPI.dll
 0004:00000370       __imp__GetSystemMetrics@4  00459370     user32:USER32.dll
 0004:00000374       __imp__UnregisterClassW@8  00459374     user32:USER32.dll
 0004:00000378       \177USER32_NULL_THUNK_DATA 00459378     user32:USER32.dll
 0004:000003a4       __imp__GdipGetImagePalette@12 004593a4     gdiplus:gdiplus.dll
 0004:000003a8       __imp__GdipGetImagePixelFormat@8 004593a8     gdiplus:gdiplus.dll
 0004:000003ac       __imp__GdipGetImageHeight@8 004593ac     gdiplus:gdiplus.dll
 0004:000003b0       __imp__GdipGetImageWidth@8 004593b0     gdiplus:gdiplus.dll
 0004:000003b4       __imp__GdipGetImageGraphicsContext@8 004593b4     gdiplus:gdiplus.dll
 0004:000003b8       __imp__GdipGetImageEncoders@12 004593b8     gdiplus:gdiplus.dll
 0004:000003bc       __imp__GdipGetImageEncodersSize@8 004593bc     gdiplus:gdiplus.dll
 0004:000003c0       __imp__GdipGetImagePaletteSize@8 004593c0     gdiplus:gdiplus.dll
 0004:000003c4       __imp__GdipCreateBitmapFromScan0@24 004593c4     gdiplus:gdiplus.dll
 0004:000003c8       __imp__GdipSaveImageToFile@16 004593c8     gdiplus:gdiplus.dll
 0004:000003cc       __imp__GdipDisposeImage@4  004593cc     gdiplus:gdiplus.dll
 0004:000003d0       __imp__GdipCloneImage@8    004593d0     gdiplus:gdiplus.dll
 0004:000003d4       __imp__GdiplusShutdown@4   004593d4     gdiplus:gdiplus.dll
 0004:000003d8       __imp__GdiplusStartup@12   004593d8     gdiplus:gdiplus.dll
 0004:000003dc       __imp__GdipFree@4          004593dc     gdiplus:gdiplus.dll
 0004:000003e0       __imp__GdipAlloc@4         004593e0     gdiplus:gdiplus.dll
 0004:000003e4       __imp__GdipCreateBitmapFromFile@8 004593e4     gdiplus:gdiplus.dll
 0004:000003e8       __imp__GdipCreateBitmapFromFileICM@8 004593e8     gdiplus:gdiplus.dll
 0004:000003ec       __imp__GdipBitmapLockBits@20 004593ec     gdiplus:gdiplus.dll
 0004:000003f0       __imp__GdipBitmapUnlockBits@8 004593f0     gdiplus:gdiplus.dll
 0004:000003f4       __imp__GdipDeleteGraphics@4 004593f4     gdiplus:gdiplus.dll
 0004:000003f8       __imp__GdipCreateBitmapFromHBITMAP@12 004593f8     gdiplus:gdiplus.dll
 0004:000003fc       __imp__GdipDrawImageI@16   004593fc     gdiplus:gdiplus.dll
 0004:00000400       \177gdiplus_NULL_THUNK_DATA 00459400     gdiplus:gdiplus.dll
 0004:0000043c       __imp_??0CWinApp@@QAE@PB_W@Z 0045943c     mfc120ud:mfc120ud.dll
 0004:00000440       __imp_?SetRegistryKey@CWinApp@@IAEXPB_W@Z 00459440     mfc120ud:mfc120ud.dll
 0004:00000444       __imp_?GetProfileIntW@CWinApp@@UAEIPB_W0H@Z 00459444     mfc120ud:mfc120ud.dll
 0004:00000448       __imp_?WriteProfileInt@CWinApp@@UAEHPB_W0H@Z 00459448     mfc120ud:mfc120ud.dll
 0004:0000044c       __imp_?GetProfileStringW@CWinApp@@UAE?AV?$CStringT@_WV?$StrTraitMFC_DLL@_WV?$ChTraitsCRT@_W@ATL@@@@@ATL@@PB_W00@Z 0045944c     mfc120ud:mfc120ud.dll
 0004:00000450       __imp_?WriteProfileStringW@CWinApp@@UAEHPB_W00@Z 00459450     mfc120ud:mfc120ud.dll
 0004:00000454       __imp_?GetProfileBinary@CWinApp@@UAEHPB_W0PAPAEPAI@Z 00459454     mfc120ud:mfc120ud.dll
 0004:00000458       __imp_?WriteProfileBinary@CWinApp@@UAEHPB_W0PAEI@Z 00459458     mfc120ud:mfc120ud.dll
 0004:0000045c       __imp_?InitLibId@CWinApp@@UAEXXZ 0045945c     mfc120ud:mfc120ud.dll
 0004:00000460       __imp_?Register@CWinApp@@UAEHXZ 00459460     mfc120ud:mfc120ud.dll
 0004:00000464       __imp_?Unregister@CWinApp@@UAEHXZ 00459464     mfc120ud:mfc120ud.dll
 0004:00000468       __imp_?OpenDocumentFile@CWinApp@@UAEPAVCDocument@@PB_W@Z 00459468     mfc120ud:mfc120ud.dll
 0004:0000046c       __imp_?OpenDocumentFile@CWinApp@@UAEPAVCDocument@@PB_WH@Z 0045946c     mfc120ud:mfc120ud.dll
 0004:00000470       __imp_?AddToRecentFileList@CWinApp@@UAEXPB_W@Z 00459470     mfc120ud:mfc120ud.dll
 0004:00000474       __imp_?InitApplication@CWinApp@@UAEHXZ 00459474     mfc120ud:mfc120ud.dll
 0004:00000478       __imp_?SaveAllModified@CWinApp@@UAEHXZ 00459478     mfc120ud:mfc120ud.dll
 0004:0000047c       __imp_?DoMessageBox@CWinApp@@UAEHPB_WII@Z 0045947c     mfc120ud:mfc120ud.dll
 0004:00000480       __imp_?DoWaitCursor@CWinApp@@UAEXH@Z 00459480     mfc120ud:mfc120ud.dll
 0004:00000484       __imp_?OnDDECommand@CWinApp@@UAEHPA_W@Z 00459484     mfc120ud:mfc120ud.dll
 0004:00000488       __imp_?WinHelpW@CWinApp@@UAEXKI@Z 00459488     mfc120ud:mfc120ud.dll
 0004:0000048c       __imp_?HtmlHelpW@CWinApp@@UAEXKI@Z 0045948c     mfc120ud:mfc120ud.dll
 0004:00000490       __imp_?WinHelpInternal@CWinApp@@UAEXKI@Z 00459490     mfc120ud:mfc120ud.dll
 0004:00000494       __imp_?RegisterWithRestartManager@CWinApp@@UAEJHABV?$CStringT@_WV?$StrTraitMFC_DLL@_WV?$ChTraitsCRT@_W@ATL@@@@@ATL@@@Z 00459494     mfc120ud:mfc120ud.dll
 0004:00000498       __imp_?RegisterWithRestartManager@CWinApp@@UAEJPB_WKP6GKPAX@Z1KK@Z 00459498     mfc120ud:mfc120ud.dll
 0004:0000049c       __imp_?ApplicationRecoveryCallback@CWinApp@@UAEKPAX@Z 0045949c     mfc120ud:mfc120ud.dll
 0004:000004a0       __imp_?OnHelp@CWinApp@@IAEXXZ 004594a0     mfc120ud:mfc120ud.dll
 0004:000004a4       __imp_?GetDataRecoveryHandler@CWinApp@@UAEPAVCDataRecoveryHandler@@XZ 004594a4     mfc120ud:mfc120ud.dll
 0004:000004a8       __imp_?IsTaskbarInteractionEnabled@CWinApp@@UAEHXZ 004594a8     mfc120ud:mfc120ud.dll
 0004:000004ac       __imp_?InitInstance@CWinApp@@UAEHXZ 004594ac     mfc120ud:mfc120ud.dll
 0004:000004b0       __imp_?OnCancel@CDialog@@MAEXXZ 004594b0     mfc120ud:mfc120ud.dll
 0004:000004b4       __imp_?RestartInstance@CWinApp@@UAEHXZ 004594b4     mfc120ud:mfc120ud.dll
 0004:000004b8       __imp_?Run@CWinApp@@UAEHXZ 004594b8     mfc120ud:mfc120ud.dll
 0004:000004bc       __imp_?OnIdle@CWinApp@@UAEHJ@Z 004594bc     mfc120ud:mfc120ud.dll
 0004:000004c0       __imp_?ProcessWndProcException@CWinApp@@UAEJPAVCException@@PBUtagMSG@@@Z 004594c0     mfc120ud:mfc120ud.dll
 0004:000004c4       __imp_?LoadAppLangResourceDLL@CWinApp@@UAEPAUHINSTANCE__@@XZ 004594c4     mfc120ud:mfc120ud.dll
 0004:000004c8       __imp_??1CWinApp@@UAE@XZ   004594c8     mfc120ud:mfc120ud.dll
 0004:000004cc       __imp_?AssertValid@CWinApp@@UBEXXZ 004594cc     mfc120ud:mfc120ud.dll
 0004:000004d0       __imp_?Dump@CWinApp@@UBEXAAVCDumpContext@@@Z 004594d0     mfc120ud:mfc120ud.dll
 0004:000004d4       __imp_?GetThisMessageMap@CWinApp@@KGPBUAFX_MSGMAP@@XZ 004594d4     mfc120ud:mfc120ud.dll
 0004:000004d8       __imp_?LoadSysPolicies@CWinApp@@UAEHXZ 004594d8     mfc120ud:mfc120ud.dll
 0004:000004dc       __imp_?AfxEnableControlContainer@@YAXPAVCOccManager@@@Z 004594dc     mfc120ud:mfc120ud.dll
 0004:000004e0       __imp_??2CObject@@SGPAXIPBDH@Z 004594e0     mfc120ud:mfc120ud.dll
 0004:000004e4       __imp_??3CObject@@SGXPAXPBDH@Z 004594e4     mfc120ud:mfc120ud.dll
 0004:000004e8       __imp_?Format@?$CStringT@_WV?$StrTraitMFC_DLL@_WV?$ChTraitsCRT@_W@ATL@@@@@ATL@@QAAXPB_WZZ 004594e8     mfc120ud:mfc120ud.dll
 0004:000004ec       __imp_??2@YAPAXIPBDH@Z     004594ec     mfc120ud:mfc120ud.dll
 0004:000004f0       __imp_??_U@YAPAXIPBDH@Z    004594f0     mfc120ud:mfc120ud.dll
 0004:000004f4       __imp_?DrawIcon@CDC@@QAEHHHPAUHICON__@@@Z 004594f4     mfc120ud:mfc120ud.dll
 0004:000004f8       __imp_?SendMessageW@CWnd@@QBEJIIJ@Z 004594f8     mfc120ud:mfc120ud.dll
 0004:000004fc       __imp_?IsIconic@CWnd@@QBEHXZ 004594fc     mfc120ud:mfc120ud.dll
 0004:00000500       __imp_?GetClientRect@CWnd@@QBEXPAUtagRECT@@@Z 00459500     mfc120ud:mfc120ud.dll
 0004:00000504       __imp_?ShowWindow@CWnd@@QAEHH@Z 00459504     mfc120ud:mfc120ud.dll
 0004:00000508       __imp_?CenterWindow@CWnd@@QAEXPAV1@@Z 00459508     mfc120ud:mfc120ud.dll
 0004:0000050c       __imp_?OnSysCommand@CWnd@@IAEXIJ@Z 0045950c     mfc120ud:mfc120ud.dll
 0004:00000510       __imp_?GetRuntimeClass@CDialog@@UBEPAUCRuntimeClass@@XZ 00459510     mfc120ud:mfc120ud.dll
 0004:00000514       __imp_?AfxGetApp@@YGPAVCWinApp@@XZ 00459514     mfc120ud:mfc120ud.dll
 0004:00000518       __imp_?AfxGetMainWnd@@YGPAVCWnd@@XZ 00459518     mfc120ud:mfc120ud.dll
 0004:0000051c       __imp_?LoadIconW@CWinApp@@QBEPAUHICON__@@I@Z 0045951c     mfc120ud:mfc120ud.dll
 0004:00000520       __imp_?GetStartPosition@CFileDialog@@QBEPAU__POSITION@@XZ 00459520     mfc120ud:mfc120ud.dll
 0004:00000524       __imp_?GetNextPathName@CFileDialog@@QBE?AV?$CStringT@_WV?$StrTraitMFC_DLL@_WV?$ChTraitsCRT@_W@ATL@@@@@ATL@@AAPAU__POSITION@@@Z 00459524     mfc120ud:mfc120ud.dll
 0004:00000528       __imp_?OnOK@CDialog@@MAEXXZ 00459528     mfc120ud:mfc120ud.dll
 0004:0000052c       __imp_?OnSetFont@CDialog@@UAEXPAVCFont@@@Z 0045952c     mfc120ud:mfc120ud.dll
 0004:00000530       __imp_?OnInitDialog@CDialog@@UAEHXZ 00459530     mfc120ud:mfc120ud.dll
 0004:00000534       __imp_?DoModal@CDialog@@UAEHXZ 00459534     mfc120ud:mfc120ud.dll
 0004:00000538       __imp_??0CDialog@@QAE@IPAVCWnd@@@Z 00459538     mfc120ud:mfc120ud.dll
 0004:0000053c       __imp_?CreateIndirect@CDialog@@UAEHPAXPAVCWnd@@@Z 0045953c     mfc120ud:mfc120ud.dll
 0004:00000540       __imp_?CreateIndirect@CDialog@@UAEHPBUDLGTEMPLATE@@PAVCWnd@@PAX@Z 00459540     mfc120ud:mfc120ud.dll
 0004:00000544       __imp_?Create@CDialog@@UAEHIPAVCWnd@@@Z 00459544     mfc120ud:mfc120ud.dll
 0004:00000548       __imp_?Create@CDialog@@UAEHPB_WPAVCWnd@@@Z 00459548     mfc120ud:mfc120ud.dll
 0004:0000054c       __imp_??0CDialog@@QAE@XZ   0045954c     mfc120ud:mfc120ud.dll
 0004:00000550       __imp_?GetThisClass@CDialog@@SGPAUCRuntimeClass@@XZ 00459550     mfc120ud:mfc120ud.dll
 0004:00000554       __imp_?CreateControlSite@CWnd@@MAEHPAVCOleControlContainer@@PAPAVCOleControlSite@@IABU_GUID@@@Z 00459554     mfc120ud:mfc120ud.dll
 0004:00000558       __imp_?CreateControlContainer@CWnd@@MAEHPAPAVCOleControlContainer@@@Z 00459558     mfc120ud:mfc120ud.dll
 0004:0000055c       __imp_?OnFinalRelease@CWnd@@UAEXXZ 0045955c     mfc120ud:mfc120ud.dll
 0004:00000560       __imp_?IsFrameWnd@CWnd@@UBEHXZ 00459560     mfc120ud:mfc120ud.dll
 0004:00000564       __imp_?OnGesturePressAndTap@CWnd@@MAEHVCPoint@@J@Z 00459564     mfc120ud:mfc120ud.dll
 0004:00000568       __imp_?OnGestureTwoFingerTap@CWnd@@MAEHVCPoint@@@Z 00459568     mfc120ud:mfc120ud.dll
 0004:0000056c       __imp_?OnGestureRotate@CWnd@@MAEHVCPoint@@N@Z 0045956c     mfc120ud:mfc120ud.dll
 0004:00000570       __imp_?OnGesturePan@CWnd@@MAEHVCPoint@@0@Z 00459570     mfc120ud:mfc120ud.dll
 0004:00000574       __imp_?OnGestureZoom@CWnd@@MAEHVCPoint@@J@Z 00459574     mfc120ud:mfc120ud.dll
 0004:00000578       __imp_?GetGestureStatus@CWnd@@MAEKVCPoint@@@Z 00459578     mfc120ud:mfc120ud.dll
 0004:0000057c       __imp_?OnTouchInput@CWnd@@MAEHVCPoint@@HHPAUtagTOUCHINPUT@@@Z 0045957c     mfc120ud:mfc120ud.dll
 0004:00000580       __imp_?OnTouchInputs@CWnd@@MAEHIPAUtagTOUCHINPUT@@@Z 00459580     mfc120ud:mfc120ud.dll
 0004:00000584       __imp_?OnChildNotify@CWnd@@MAEHIIJPAJ@Z 00459584     mfc120ud:mfc120ud.dll
 0004:00000588       __imp_?PostNcDestroy@CWnd@@MAEXXZ 00459588     mfc120ud:mfc120ud.dll
 0004:0000058c       __imp_?GetRuntimeClass@CWinApp@@UBEPAUCRuntimeClass@@XZ 0045958c     mfc120ud:mfc120ud.dll
 0004:00000590       __imp_?OnWndMsg@CWnd@@MAEHIIJPAJ@Z 00459590     mfc120ud:mfc120ud.dll
 0004:00000594       __imp_?WindowProc@CWnd@@MAEJIIJ@Z 00459594     mfc120ud:mfc120ud.dll
 0004:00000598       __imp_?OnAmbientProperty@CWnd@@UAEHPAVCOleControlSite@@JPAUtagVARIANT@@@Z 00459598     mfc120ud:mfc120ud.dll
 0004:0000059c       __imp_?EndModalState@CWnd@@UAEXXZ 0045959c     mfc120ud:mfc120ud.dll
 0004:000005a0       __imp_?BeginModalState@CWnd@@UAEXXZ 004595a0     mfc120ud:mfc120ud.dll
 0004:000005a4       __imp_?DoDataExchange@CWnd@@MAEXPAVCDataExchange@@@Z 004595a4     mfc120ud:mfc120ud.dll
 0004:000005a8       __imp_?GetSuperWndProcAddr@CWnd@@MAEPAP6GJPAUHWND__@@IIJ@ZXZ 004595a8     mfc120ud:mfc120ud.dll
 0004:000005ac       __imp_?OnNotify@CWnd@@MAEHIJPAJ@Z 004595ac     mfc120ud:mfc120ud.dll
 0004:000005b0       __imp_?OnCommand@CWnd@@MAEHIJ@Z 004595b0     mfc120ud:mfc120ud.dll
 0004:000005b4       __imp_?CreateAccessibleProxy@CWnd@@UAEJIJPAJ@Z 004595b4     mfc120ud:mfc120ud.dll
 0004:000005b8       __imp_?SetProxy@CWnd@@UAEJPAUIAccessibleProxy@@@Z 004595b8     mfc120ud:mfc120ud.dll
 0004:000005bc       __imp_?put_accValue@CWnd@@UAEJUtagVARIANT@@PA_W@Z 004595bc     mfc120ud:mfc120ud.dll
 0004:000005c0       __imp_?put_accName@CWnd@@UAEJUtagVARIANT@@PA_W@Z 004595c0     mfc120ud:mfc120ud.dll
 0004:000005c4       __imp_?accDoDefaultAction@CWnd@@UAEJUtagVARIANT@@@Z 004595c4     mfc120ud:mfc120ud.dll
 0004:000005c8       __imp_?accHitTest@CWnd@@UAEJJJPAUtagVARIANT@@@Z 004595c8     mfc120ud:mfc120ud.dll
 0004:000005cc       __imp_?accNavigate@CWnd@@UAEJJUtagVARIANT@@PAU2@@Z 004595cc     mfc120ud:mfc120ud.dll
 0004:000005d0       __imp_?accLocation@CWnd@@UAEJPAJ000UtagVARIANT@@@Z 004595d0     mfc120ud:mfc120ud.dll
 0004:000005d4       __imp_?accSelect@CWnd@@UAEJJUtagVARIANT@@@Z 004595d4     mfc120ud:mfc120ud.dll
 0004:000005d8       __imp_?get_accDefaultAction@CWnd@@UAEJUtagVARIANT@@PAPA_W@Z 004595d8     mfc120ud:mfc120ud.dll
 0004:000005dc       __imp_?get_accSelection@CWnd@@UAEJPAUtagVARIANT@@@Z 004595dc     mfc120ud:mfc120ud.dll
 0004:000005e0       __imp_?get_accFocus@CWnd@@UAEJPAUtagVARIANT@@@Z 004595e0     mfc120ud:mfc120ud.dll
 0004:000005e4       __imp_?get_accKeyboardShortcut@CWnd@@UAEJUtagVARIANT@@PAPA_W@Z 004595e4     mfc120ud:mfc120ud.dll
 0004:000005e8       __imp_?get_accHelpTopic@CWnd@@UAEJPAPA_WUtagVARIANT@@PAJ@Z 004595e8     mfc120ud:mfc120ud.dll
 0004:000005ec       __imp_?get_accHelp@CWnd@@UAEJUtagVARIANT@@PAPA_W@Z 004595ec     mfc120ud:mfc120ud.dll
 0004:000005f0       __imp_?get_accState@CWnd@@UAEJUtagVARIANT@@PAU2@@Z 004595f0     mfc120ud:mfc120ud.dll
 0004:000005f4       __imp_?get_accRole@CWnd@@UAEJUtagVARIANT@@PAU2@@Z 004595f4     mfc120ud:mfc120ud.dll
 0004:000005f8       __imp_?get_accDescription@CWnd@@UAEJUtagVARIANT@@PAPA_W@Z 004595f8     mfc120ud:mfc120ud.dll
 0004:000005fc       __imp_?get_accValue@CWnd@@UAEJUtagVARIANT@@PAPA_W@Z 004595fc     mfc120ud:mfc120ud.dll
 0004:00000600       __imp_?get_accName@CWnd@@UAEJUtagVARIANT@@PAPA_W@Z 00459600     mfc120ud:mfc120ud.dll
 0004:00000604       __imp_?get_accChild@CWnd@@UAEJUtagVARIANT@@PAPAUIDispatch@@@Z 00459604     mfc120ud:mfc120ud.dll
 0004:00000608       __imp_?get_accChildCount@CWnd@@UAEJPAJ@Z 00459608     mfc120ud:mfc120ud.dll
 0004:0000060c       __imp_?get_accParent@CWnd@@UAEJPAPAUIDispatch@@@Z 0045960c     mfc120ud:mfc120ud.dll
 0004:00000610       __imp_?EnsureStdObj@CWnd@@UAEJXZ 00459610     mfc120ud:mfc120ud.dll
 0004:00000614       __imp_?GetInterfaceMap@CWnd@@MBEPBUAFX_INTERFACEMAP@@XZ 00459614     mfc120ud:mfc120ud.dll
 0004:00000618       __imp_?OnDrawIconicThumbnailOrLivePreview@CWnd@@UAEXAAVCDC@@VCRect@@VCSize@@HAAH@Z 00459618     mfc120ud:mfc120ud.dll
 0004:0000061c       __imp_?EndModalLoop@CWnd@@UAEXH@Z 0045961c     mfc120ud:mfc120ud.dll
 0004:00000620       __imp_?ContinueModal@CWnd@@UAEHXZ 00459620     mfc120ud:mfc120ud.dll
 0004:00000624       __imp_?WinHelpInternal@CWnd@@UAEXKI@Z 00459624     mfc120ud:mfc120ud.dll
 0004:00000628       __imp_?HtmlHelpW@CWnd@@UAEXKI@Z 00459628     mfc120ud:mfc120ud.dll
 0004:0000062c       __imp_?WinHelpW@CWnd@@UAEXKI@Z 0045962c     mfc120ud:mfc120ud.dll
 0004:00000630       __imp_?SetIcon@CWnd@@QAEPAUHICON__@@PAU2@H@Z 00459630     mfc120ud:mfc120ud.dll
 0004:00000634       __imp_?GetScrollBarCtrl@CWnd@@UBEPAVCScrollBar@@H@Z 00459634     mfc120ud:mfc120ud.dll
 0004:00000638       __imp_?OnToolHitTest@CWnd@@UBEHVCPoint@@PAUtagTOOLINFOW@@@Z 00459638     mfc120ud:mfc120ud.dll
 0004:0000063c       __imp_?GetWindowRect@CWnd@@QBEXPAUtagRECT@@@Z 0045963c     mfc120ud:mfc120ud.dll
 0004:00000640       __imp_?SetWindowPos@CWnd@@QAEHPBV1@HHHHI@Z 00459640     mfc120ud:mfc120ud.dll
 0004:00000644       __imp_?GetSystemMenu@CWnd@@QBEPAVCMenu@@H@Z 00459644     mfc120ud:mfc120ud.dll
 0004:00000648       __imp_?SetMenu@CWnd@@UAEHPAVCMenu@@@Z 00459648     mfc120ud:mfc120ud.dll
 0004:0000064c       __imp_?GetMenu@CWnd@@UBEPAVCMenu@@XZ 0045964c     mfc120ud:mfc120ud.dll
 0004:00000650       __imp_?GetDlgItem@CWnd@@QBEPAV1@H@Z 00459650     mfc120ud:mfc120ud.dll
 0004:00000654       __imp_?CalcWindowRect@CWnd@@UAEXPAUtagRECT@@I@Z 00459654     mfc120ud:mfc120ud.dll
 0004:00000658       __imp_?PreCreateWindow@CWnd@@UAEHAAUtagCREATESTRUCTW@@@Z 00459658     mfc120ud:mfc120ud.dll
 0004:0000065c       __imp_?DestroyWindow@CWnd@@UAEHXZ 0045965c     mfc120ud:mfc120ud.dll
 0004:00000660       __imp_?CreateEx@CWnd@@UAEHKPB_W0KABUtagRECT@@PAV1@IPAX@Z 00459660     mfc120ud:mfc120ud.dll
 0004:00000664       __imp_?CreateEx@CWnd@@UAEHKPB_W0KHHHHPAUHWND__@@PAUHMENU__@@PAX@Z 00459664     mfc120ud:mfc120ud.dll
 0004:00000668       __imp_?Create@CWnd@@UAEHPB_W0KABUtagRECT@@PAV1@IPAUCCreateContext@@@Z 00459668     mfc120ud:mfc120ud.dll
 0004:0000066c       __imp_?PreSubclassWindow@CWnd@@UAEXXZ 0045966c     mfc120ud:mfc120ud.dll
 0004:00000670       __imp_?GetConnectionHook@CCmdTarget@@MAEPAUIConnectionPoint@@ABU_GUID@@@Z 00459670     mfc120ud:mfc120ud.dll
 0004:00000674       __imp_?GetExtraConnectionPoints@CCmdTarget@@MAEHPAVCPtrArray@@@Z 00459674     mfc120ud:mfc120ud.dll
 0004:00000678       __imp_?GetInterfaceHook@CCmdTarget@@UAEPAUIUnknown@@PBX@Z 00459678     mfc120ud:mfc120ud.dll
 0004:0000067c       __imp_?OnCreateAggregates@CCmdTarget@@UAEHXZ 0045967c     mfc120ud:mfc120ud.dll
 0004:00000680       __imp_?GetEventSinkMap@CCmdTarget@@MBEPBUAFX_EVENTSINKMAP@@XZ 00459680     mfc120ud:mfc120ud.dll
 0004:00000684       __imp_?GetConnectionMap@CCmdTarget@@MBEPBUAFX_CONNECTIONMAP@@XZ 00459684     mfc120ud:mfc120ud.dll
 0004:00000688       __imp_?GetDispatchMap@CCmdTarget@@MBEPBUAFX_DISPMAP@@XZ 00459688     mfc120ud:mfc120ud.dll
 0004:0000068c       __imp_?GetCommandMap@CCmdTarget@@MBEPBUAFX_OLECMDMAP@@XZ 0045968c     mfc120ud:mfc120ud.dll
 0004:00000690       __imp_?GetTypeLib@CCmdTarget@@UAEJKPAPAUITypeLib@@@Z 00459690     mfc120ud:mfc120ud.dll
 0004:00000694       __imp_?GetTypeLibCache@CCmdTarget@@UAEPAVCTypeLibCache@@XZ 00459694     mfc120ud:mfc120ud.dll
 0004:00000698       __imp_?GetTypeInfoCount@CCmdTarget@@UAEIXZ 00459698     mfc120ud:mfc120ud.dll
 0004:0000069c       __imp_?GetDispatchIID@CCmdTarget@@UAEHPAU_GUID@@@Z 0045969c     mfc120ud:mfc120ud.dll
 0004:000006a0       __imp_?IsInvokeAllowed@CCmdTarget@@UAEHJ@Z 004596a0     mfc120ud:mfc120ud.dll
 0004:000006a4       __imp_?DDX_Control@@YGXPAVCDataExchange@@HAAVCWnd@@@Z 004596a4     mfc120ud:mfc120ud.dll
 0004:000006a8       __imp_?AppendMenuW@CMenu@@QAEHIIPB_W@Z 004596a8     mfc120ud:mfc120ud.dll
 0004:000006ac       __imp_??1CPaintDC@@UAE@XZ  004596ac     mfc120ud:mfc120ud.dll
 0004:000006b0       __imp_?Delete@CWinThread@@UAEXXZ 004596b0     mfc120ud:mfc120ud.dll
 0004:000006b4       __imp_?GetMainWnd@CWinThread@@UAEPAVCWnd@@XZ 004596b4     mfc120ud:mfc120ud.dll
 0004:000006b8       __imp_?ProcessMessageFilter@CWinThread@@UAEHHPAUtagMSG@@@Z 004596b8     mfc120ud:mfc120ud.dll
 0004:000006bc       __imp_??0CPaintDC@@QAE@PAVCWnd@@@Z 004596bc     mfc120ud:mfc120ud.dll
 0004:000006c0       __imp_?GetSafeHdc@CDC@@QBEPAUHDC__@@XZ 004596c0     mfc120ud:mfc120ud.dll
 0004:000006c4       __imp_?LoadStringW@?$CStringT@_WV?$StrTraitMFC_DLL@_WV?$ChTraitsCRT@_W@ATL@@@@@ATL@@QAEHI@Z 004596c4     mfc120ud:mfc120ud.dll
 0004:000006c8       __imp_?Tokenize@?$CStringT@_WV?$StrTraitMFC_DLL@_WV?$ChTraitsCRT@_W@ATL@@@@@ATL@@QBE?AV12@PB_WAAH@Z 004596c8     mfc120ud:mfc120ud.dll
 0004:000006cc       __imp_?CompareNoCase@?$CStringT@_WV?$StrTraitMFC_DLL@_WV?$ChTraitsCRT@_W@ATL@@@@@ATL@@QBEHPB_W@Z 004596cc     mfc120ud:mfc120ud.dll
 0004:000006d0       __imp_?GetManager@?$CStringT@_WV?$StrTraitMFC_DLL@_WV?$ChTraitsCRT@_W@ATL@@@@@ATL@@QBEPAUIAtlStringMgr@2@XZ 004596d0     mfc120ud:mfc120ud.dll
 0004:000006d4       __imp_??4?$CStringT@_WV?$StrTraitMFC_DLL@_WV?$ChTraitsCRT@_W@ATL@@@@@ATL@@QAEAAV01@PBD@Z 004596d4     mfc120ud:mfc120ud.dll
 0004:000006d8       __imp_??4?$CStringT@_WV?$StrTraitMFC_DLL@_WV?$ChTraitsCRT@_W@ATL@@@@@ATL@@QAEAAV01@PB_W@Z 004596d8     mfc120ud:mfc120ud.dll
 0004:000006dc       __imp_??4?$CStringT@_WV?$StrTraitMFC_DLL@_WV?$ChTraitsCRT@_W@ATL@@@@@ATL@@QAEAAV01@ABV01@@Z 004596dc     mfc120ud:mfc120ud.dll
 0004:000006e0       __imp_??1?$CStringT@_WV?$StrTraitMFC_DLL@_WV?$ChTraitsCRT@_W@ATL@@@@@ATL@@QAE@XZ 004596e0     mfc120ud:mfc120ud.dll
 0004:000006e4       __imp_??0?$CStringT@_WV?$StrTraitMFC_DLL@_WV?$ChTraitsCRT@_W@ATL@@@@@ATL@@QAE@PB_W@Z 004596e4     mfc120ud:mfc120ud.dll
 0004:000006e8       __imp_??0?$CStringT@_WV?$StrTraitMFC_DLL@_WV?$ChTraitsCRT@_W@ATL@@@@@ATL@@QAE@ABV01@@Z 004596e8     mfc120ud:mfc120ud.dll
 0004:000006ec       __imp_??0?$CStringT@_WV?$StrTraitMFC_DLL@_WV?$ChTraitsCRT@_W@ATL@@@@@ATL@@QAE@PAUIAtlStringMgr@1@@Z 004596ec     mfc120ud:mfc120ud.dll
 0004:000006f0       __imp_??0?$CStringT@_WV?$StrTraitMFC_DLL@_WV?$ChTraitsCRT@_W@ATL@@@@@ATL@@QAE@XZ 004596f0     mfc120ud:mfc120ud.dll
 0004:000006f4       __imp_?IsIdleMessage@CWinThread@@UAEHPAUtagMSG@@@Z 004596f4     mfc120ud:mfc120ud.dll
 0004:000006f8       __imp_?PumpMessage@CWinThread@@UAEHXZ 004596f8     mfc120ud:mfc120ud.dll
 0004:000006fc       __imp_?PreTranslateMessage@CWinThread@@UAEHPAUtagMSG@@@Z 004596fc     mfc120ud:mfc120ud.dll
 0004:00000700       __imp_?GetInterfaceMap@CCmdTarget@@MBEPBUAFX_INTERFACEMAP@@XZ 00459700     mfc120ud:mfc120ud.dll
 0004:00000704       __imp_?OnFinalRelease@CCmdTarget@@UAEXXZ 00459704     mfc120ud:mfc120ud.dll
 0004:00000708       __imp_?OnCmdMsg@CCmdTarget@@UAEHIHPAXPAUAFX_CMDHANDLERINFO@@@Z 00459708     mfc120ud:mfc120ud.dll
 0004:0000070c       __imp_??2@YAPAXI@Z         0045970c     mfc120ud:mfc120ud.dll
 0004:00000710       __imp_??_V@YAXPAX@Z        00459710     mfc120ud:mfc120ud.dll
 0004:00000714       __imp_??_U@YAPAXI@Z        00459714     mfc120ud:mfc120ud.dll
 0004:00000718       __imp_?DoModal@CFileDialog@@UAEHXZ 00459718     mfc120ud:mfc120ud.dll
 0004:0000071c       __imp_??1CFileDialog@@UAE@XZ 0045971c     mfc120ud:mfc120ud.dll
 0004:00000720       __imp_??0CFileDialog@@QAE@HPB_W0K0PAVCWnd@@KH@Z 00459720     mfc120ud:mfc120ud.dll
 0004:00000724       __imp_?GetOFN@CFileDialog@@QAEAAUtagOFNW@@XZ 00459724     mfc120ud:mfc120ud.dll
 0004:00000728       __imp_?AfxMessageBox@@YGHPB_WII@Z 00459728     mfc120ud:mfc120ud.dll
 0004:0000072c       __imp_??1CStatic@@UAE@XZ   0045972c     mfc120ud:mfc120ud.dll
 0004:00000730       __imp_??0CStatic@@QAE@XZ   00459730     mfc120ud:mfc120ud.dll
 0004:00000734       __imp_?GetThisMessageMap@CDialog@@KGPBUAFX_MSGMAP@@XZ 00459734     mfc120ud:mfc120ud.dll
 0004:00000738       __imp_?OnPaint@CDialog@@IAEXXZ 00459738     mfc120ud:mfc120ud.dll
 0004:0000073c       __imp_?PreInitDialog@CDialog@@MAEXXZ 0045973c     mfc120ud:mfc120ud.dll
 0004:00000740       __imp_?GetOccDialogInfo@CDialog@@MAEPAU_AFX_OCC_DIALOG_INFO@@XZ 00459740     mfc120ud:mfc120ud.dll
 0004:00000744       __imp_?SetOccDialogInfo@CDialog@@MAEHPAU_AFX_OCC_DIALOG_INFO@@@Z 00459744     mfc120ud:mfc120ud.dll
 0004:00000748       __imp_?CheckAutoCenter@CDialog@@UAEHXZ 00459748     mfc120ud:mfc120ud.dll
 0004:0000074c       __imp_?OnCmdMsg@CDialog@@UAEHIHPAXPAUAFX_CMDHANDLERINFO@@@Z 0045974c     mfc120ud:mfc120ud.dll
 0004:00000750       __imp_?PreTranslateMessage@CDialog@@UAEHPAUtagMSG@@@Z 00459750     mfc120ud:mfc120ud.dll
 0004:00000754       __imp_?Dump@CDialog@@UBEXAAVCDumpContext@@@Z 00459754     mfc120ud:mfc120ud.dll
 0004:00000758       __imp_?AssertValid@CDialog@@UBEXXZ 00459758     mfc120ud:mfc120ud.dll
 0004:0000075c       __imp_?DefWindowProcW@CWnd@@MAEJIIJ@Z 0045975c     mfc120ud:mfc120ud.dll
 0004:00000760       __imp_??1CDialog@@UAE@XZ   00459760     mfc120ud:mfc120ud.dll
 0004:00000764       __imp_?Concatenate@?$CSimpleStringT@_W$00@ATL@@KAXAAV12@PB_WH1H@Z 00459764     mfc120ud:mfc120ud.dll
 0004:00000768       __imp_?StringLength@?$CSimpleStringT@_W$00@ATL@@SAHPB_W@Z 00459768     mfc120ud:mfc120ud.dll
 0004:0000076c       __imp_?IsEmpty@?$CSimpleStringT@_W$00@ATL@@QBE_NXZ 0045976c     mfc120ud:mfc120ud.dll
 0004:00000770       __imp_?GetLength@?$CSimpleStringT@_W$00@ATL@@QBEHXZ 00459770     mfc120ud:mfc120ud.dll
 0004:00000774       __imp_??B?$CSimpleStringT@_W$00@ATL@@QBEPB_WXZ 00459774     mfc120ud:mfc120ud.dll
 0004:00000778       __imp_?Serialize@CObject@@UAEXAAVCArchive@@@Z 00459778     mfc120ud:mfc120ud.dll
 0004:0000077c       __imp_??3CObject@@SGXPAX@Z 0045977c     mfc120ud:mfc120ud.dll
 0004:00000780       __imp_?AfxThrowOleException@@YGXJ@Z 00459780     mfc120ud:mfc120ud.dll
 0004:00000784       __imp_?AfxThrowInvalidArgException@@YGXXZ 00459784     mfc120ud:mfc120ud.dll
 0004:00000788       __imp_?AfxThrowMemoryException@@YGXXZ 00459788     mfc120ud:mfc120ud.dll
 0004:0000078c       __imp_?ExitInstance@CWinApp@@UAEHXZ 0045978c     mfc120ud:mfc120ud.dll
 0004:00000790       __imp_??3@YAXPAX@Z         00459790     mfc120ud:mfc120ud.dll
 0004:00000794       __imp_?AfxAssertFailedLine@@YGHPBDH@Z 00459794     mfc120ud:mfc120ud.dll
 0004:00000798       __imp_?AfxGetModuleState@@YGPAVAFX_MODULE_STATE@@XZ 00459798     mfc120ud:mfc120ud.dll
 0004:0000079c       __imp_?AfxWinMain@@YGHPAUHINSTANCE__@@0PA_WH@Z 0045979c     mfc120ud:mfc120ud.dll
 0004:000007a0       \177mfc120ud_NULL_THUNK_DATA 004597a0     mfc120ud:mfc120ud.dll
 0004:00000878       __IMPORT_DESCRIPTOR_mfc120ud 00459878     mfc120ud:mfc120ud.dll
 0004:0000088c       __IMPORT_DESCRIPTOR_MSVCR120D 0045988c     msvcrtd:MSVCR120D.dll
 0004:000008a0       __IMPORT_DESCRIPTOR_KERNEL32 004598a0     kernel32:KERNEL32.dll
 0004:000008b4       __IMPORT_DESCRIPTOR_USER32 004598b4     user32:USER32.dll
 0004:000008c8       __IMPORT_DESCRIPTOR_GDI32  004598c8     gdi32:GDI32.dll
 0004:000008dc       __IMPORT_DESCRIPTOR_COMCTL32 004598dc     comctl32:COMCTL32.dll
 0004:000008f0       __IMPORT_DESCRIPTOR_SHLWAPI 004598f0     shlwapi:SHLWAPI.dll
 0004:00000904       __IMPORT_DESCRIPTOR_OLEAUT32 00459904     oleaut32:OLEAUT32.dll
 0004:00000918       __IMPORT_DESCRIPTOR_gdiplus 00459918     gdiplus:gdiplus.dll
 0004:0000092c       __IMPORT_DESCRIPTOR_MSVCP120D 0045992c     msvcprtd:MSVCP120D.dll
 0004:00000940       __NULL_IMPORT_DESCRIPTOR   00459940     mfc120ud:mfc120ud.dll
